
tcp.elf:     file format elf32-littlenios2
tcp.elf
architecture: nios2:r1, flags 0x00000112:
EXEC_P, HAS_SYMS, D_PAGED
start address 0x00080244

Program Header:
    LOAD off    0x00001000 vaddr 0x00080000 paddr 0x00080000 align 2**12
         filesz 0x00000020 memsz 0x00000020 flags r-x
    LOAD off    0x00001020 vaddr 0x00080020 paddr 0x00080020 align 2**12
         filesz 0x000123e0 memsz 0x000123e0 flags r-x
    LOAD off    0x00013400 vaddr 0x00092400 paddr 0x00094358 align 2**12
         filesz 0x00001f58 memsz 0x00001f58 flags rw-
    LOAD off    0x000162b0 vaddr 0x000962b0 paddr 0x000962b0 align 2**12
         filesz 0x00000000 memsz 0x00000598 flags rw-
    LOAD off    0x00016000 vaddr 0x00100000 paddr 0x00096848 align 2**12
         filesz 0x00000080 memsz 0x00000080 flags rw-

Sections:
Idx Name          Size      VMA       LMA       File off  Algn
  0 .entry        00000020  00080000  00080000  00001000  2**5
                  CONTENTS, ALLOC, LOAD, READONLY, CODE
  1 .exceptions   00000224  00080020  00080020  00001020  2**2
                  CONTENTS, ALLOC, LOAD, READONLY, CODE
  2 .text         00011a70  00080244  00080244  00001244  2**2
                  CONTENTS, ALLOC, LOAD, READONLY, CODE
  3 .rodata       0000074c  00091cb4  00091cb4  00012cb4  2**2
                  CONTENTS, ALLOC, LOAD, READONLY, DATA
  4 .rwdata       00001f58  00092400  00094358  00013400  2**2
                  CONTENTS, ALLOC, LOAD, DATA, SMALL_DATA
  5 .bss          00000598  000962b0  000962b0  000162b0  2**2
                  ALLOC, SMALL_DATA
  6 .main_memory  00000000  00096848  00096848  00016080  2**0
                  CONTENTS
  7 .descriptor_memory 00000080  00100000  00096848  00016000  2**0
                  CONTENTS, ALLOC, LOAD, DATA
  8 .comment      00000023  00000000  00000000  00016080  2**0
                  CONTENTS, READONLY
  9 .debug_aranges 00000fd0  00000000  00000000  000160a8  2**3
                  CONTENTS, READONLY, DEBUGGING
 10 .debug_info   00027791  00000000  00000000  00017078  2**0
                  CONTENTS, READONLY, DEBUGGING
 11 .debug_abbrev 00009ec0  00000000  00000000  0003e809  2**0
                  CONTENTS, READONLY, DEBUGGING
 12 .debug_line   0000c37a  00000000  00000000  000486c9  2**0
                  CONTENTS, READONLY, DEBUGGING
 13 .debug_frame  00002680  00000000  00000000  00054a44  2**2
                  CONTENTS, READONLY, DEBUGGING
 14 .debug_str    00003f1c  00000000  00000000  000570c4  2**0
                  CONTENTS, READONLY, DEBUGGING
 15 .debug_loc    00017b65  00000000  00000000  0005afe0  2**0
                  CONTENTS, READONLY, DEBUGGING
 16 .debug_alt_sim_info 00000030  00000000  00000000  00072b48  2**2
                  CONTENTS, READONLY, DEBUGGING
 17 .debug_ranges 00001938  00000000  00000000  00072b78  2**3
                  CONTENTS, READONLY, DEBUGGING
 18 .thread_model 00000003  00000000  00000000  00077e52  2**0
                  CONTENTS, READONLY
 19 .cpu          00000005  00000000  00000000  00077e55  2**0
                  CONTENTS, READONLY
 20 .qsys         00000001  00000000  00000000  00077e5a  2**0
                  CONTENTS, READONLY
 21 .simulation_enabled 00000001  00000000  00000000  00077e5b  2**0
                  CONTENTS, READONLY
 22 .stderr_dev   00000009  00000000  00000000  00077e5c  2**0
                  CONTENTS, READONLY
 23 .stdin_dev    00000009  00000000  00000000  00077e65  2**0
                  CONTENTS, READONLY
 24 .stdout_dev   00000009  00000000  00000000  00077e6e  2**0
                  CONTENTS, READONLY
 25 .sopc_system_name 0000000c  00000000  00000000  00077e77  2**0
                  CONTENTS, READONLY
 26 .quartus_project_dir 00000026  00000000  00000000  00077e83  2**0
                  CONTENTS, READONLY
 27 .jdi          00004653  00000000  00000000  00077ea9  2**0
                  CONTENTS, READONLY
 28 .sopcinfo     00074e2d  00000000  00000000  0007c4fc  2**0
                  CONTENTS, READONLY
SYMBOL TABLE:
00080000 l    d  .entry	00000000 .entry
00080020 l    d  .exceptions	00000000 .exceptions
00080244 l    d  .text	00000000 .text
00091cb4 l    d  .rodata	00000000 .rodata
00092400 l    d  .rwdata	00000000 .rwdata
000962b0 l    d  .bss	00000000 .bss
00096848 l    d  .main_memory	00000000 .main_memory
00100000 l    d  .descriptor_memory	00000000 .descriptor_memory
00000000 l    d  .comment	00000000 .comment
00000000 l    d  .debug_aranges	00000000 .debug_aranges
00000000 l    d  .debug_info	00000000 .debug_info
00000000 l    d  .debug_abbrev	00000000 .debug_abbrev
00000000 l    d  .debug_line	00000000 .debug_line
00000000 l    d  .debug_frame	00000000 .debug_frame
00000000 l    d  .debug_str	00000000 .debug_str
00000000 l    d  .debug_loc	00000000 .debug_loc
00000000 l    d  .debug_alt_sim_info	00000000 .debug_alt_sim_info
00000000 l    d  .debug_ranges	00000000 .debug_ranges
00000000 l    df *ABS*	00000000 ../tcp_bsp//obj/HAL/src/crt0.o
0008028c l       .text	00000000 alt_after_alt_main
00000000 l    df *ABS*	00000000 alt_irq_handler.c
00000000 l    df *ABS*	00000000 alt_instruction_exception_entry.c
00000000 l    df *ABS*	00000000 layer.c
00000000 l    df *ABS*	00000000 stack.c
00000000 l    df *ABS*	00000000 fflush.c
00000000 l    df *ABS*	00000000 findfp.c
00081c3c l     F .text	00000008 __fp_unlock
00081c50 l     F .text	0000019c __sinit.part.1
00081dec l     F .text	00000008 __fp_lock
00000000 l    df *ABS*	00000000 mallocr.c
00000000 l    df *ABS*	00000000 fwalk.c
00000000 l    df *ABS*	00000000 impure.c
00092800 l     O .rwdata	00000424 impure_data
00000000 l    df *ABS*	00000000 malloc.c
00000000 l    df *ABS*	00000000 mallocr.c
00000000 l    df *ABS*	00000000 memmove.c
00000000 l    df *ABS*	00000000 memset.c
00000000 l    df *ABS*	00000000 printf.c
00000000 l    df *ABS*	00000000 putchar.c
00000000 l    df *ABS*	00000000 puts.c
00000000 l    df *ABS*	00000000 sbrkr.c
00000000 l    df *ABS*	00000000 stdio.c
00000000 l    df *ABS*	00000000 strlen.c
00000000 l    df *ABS*	00000000 vfprintf.c
00092132 l     O .rodata	00000010 zeroes.4404
000855ec l     F .text	000000bc __sbprintf
00092142 l     O .rodata	00000010 blanks.4403
00000000 l    df *ABS*	00000000 writer.c
00000000 l    df *ABS*	00000000 wsetup.c
00000000 l    df *ABS*	00000000 closer.c
00000000 l    df *ABS*	00000000 dtoa.c
000858b0 l     F .text	00000200 quorem
00000000 l    df *ABS*	00000000 fclose.c
00000000 l    df *ABS*	00000000 fvwrite.c
00000000 l    df *ABS*	00000000 int_errno.c
00000000 l    df *ABS*	00000000 locale.c
0009304c l     O .rwdata	00000020 lc_ctype_charset
0009302c l     O .rwdata	00000020 lc_message_charset
0009306c l     O .rwdata	00000038 lconv
00000000 l    df *ABS*	00000000 lseekr.c
00000000 l    df *ABS*	00000000 makebuf.c
00000000 l    df *ABS*	00000000 memchr.c
00000000 l    df *ABS*	00000000 memcpy.c
00000000 l    df *ABS*	00000000 mprec.c
00092170 l     O .rodata	0000000c p05.2768
00000000 l    df *ABS*	00000000 putc.c
00000000 l    df *ABS*	00000000 readr.c
00000000 l    df *ABS*	00000000 mallocr.c
00000000 l    df *ABS*	00000000 s_fpclassify.c
00000000 l    df *ABS*	00000000 strcmp.c
00000000 l    df *ABS*	00000000 vfprintf.c
00089494 l     F .text	000000fc __sprint_r.part.0
000922a4 l     O .rodata	00000010 blanks.4348
00092294 l     O .rodata	00000010 zeroes.4349
0008aa20 l     F .text	000000bc __sbprintf
00000000 l    df *ABS*	00000000 wbuf.c
00000000 l    df *ABS*	00000000 mallocr.c
00000000 l    df *ABS*	00000000 fputwc.c
00000000 l    df *ABS*	00000000 fstatr.c
00000000 l    df *ABS*	00000000 isattyr.c
00000000 l    df *ABS*	00000000 wcrtomb.c
00000000 l    df *ABS*	00000000 wctomb_r.c
00000000 l    df *ABS*	00000000 libgcc2.c
00000000 l    df *ABS*	00000000 libgcc2.c
00000000 l    df *ABS*	00000000 lib2-divmod.c
00000000 l    df *ABS*	00000000 adddf3.c
00000000 l    df *ABS*	00000000 divdf3.c
00000000 l    df *ABS*	00000000 eqdf2.c
00000000 l    df *ABS*	00000000 gedf2.c
00000000 l    df *ABS*	00000000 ledf2.c
00000000 l    df *ABS*	00000000 muldf3.c
00000000 l    df *ABS*	00000000 subdf3.c
00000000 l    df *ABS*	00000000 fixdfsi.c
00000000 l    df *ABS*	00000000 floatsidf.c
00000000 l    df *ABS*	00000000 floatunsidf.c
00000000 l    df *ABS*	00000000 libgcc2.c
00000000 l    df *ABS*	00000000 libgcc2.c
00000000 l    df *ABS*	00000000 alt_close.c
0008e464 l     F .text	0000003c alt_get_errno
00000000 l    df *ABS*	00000000 alt_dcache_flush_all.c
00000000 l    df *ABS*	00000000 alt_dev.c
0008e5b8 l     F .text	0000002c alt_dev_null_write
00000000 l    df *ABS*	00000000 alt_errno.c
00000000 l    df *ABS*	00000000 alt_fstat.c
0008e5e4 l     F .text	0000003c alt_get_errno
00000000 l    df *ABS*	00000000 alt_isatty.c
0008e6d0 l     F .text	0000003c alt_get_errno
00000000 l    df *ABS*	00000000 alt_load.c
0008e7b0 l     F .text	00000068 alt_load_section
00000000 l    df *ABS*	00000000 alt_lseek.c
0008e89c l     F .text	0000003c alt_get_errno
00000000 l    df *ABS*	00000000 alt_main.c
00000000 l    df *ABS*	00000000 alt_malloc_lock.c
00000000 l    df *ABS*	00000000 alt_printf.c
00000000 l    df *ABS*	00000000 alt_putchar.c
00000000 l    df *ABS*	00000000 alt_read.c
0008ecd8 l     F .text	0000003c alt_get_errno
00000000 l    df *ABS*	00000000 alt_release_fd.c
00000000 l    df *ABS*	00000000 alt_sbrk.c
00094340 l     O .rwdata	00000004 heap_end
00000000 l    df *ABS*	00000000 alt_write.c
0008ef24 l     F .text	0000003c alt_get_errno
00000000 l    df *ABS*	00000000 alt_sys_init.c
0008f058 l     F .text	00000034 alt_dev_reg
0009324c l     O .rwdata	00001060 jtag_uart
000942ac l     O .rwdata	00000030 sgdma_rx
000942dc l     O .rwdata	00000030 sgdma_tx
00000000 l    df *ABS*	00000000 altera_avalon_jtag_uart_fd.c
00000000 l    df *ABS*	00000000 altera_avalon_jtag_uart_init.c
0008f378 l     F .text	0000020c altera_avalon_jtag_uart_irq
0008f584 l     F .text	000000a0 altera_avalon_jtag_uart_timeout
00000000 l    df *ABS*	00000000 altera_avalon_jtag_uart_ioctl.c
00000000 l    df *ABS*	00000000 altera_avalon_jtag_uart_read.c
00000000 l    df *ABS*	00000000 altera_avalon_jtag_uart_write.c
00000000 l    df *ABS*	00000000 altera_avalon_sgdma.c
0008fbbc l     F .text	0000003c alt_get_errno
000907ec l     F .text	000000bc alt_avalon_sgdma_irq
00000000 l    df *ABS*	00000000 altera_avalon_timer_sc.c
00090950 l     F .text	00000078 alt_avalon_timer_sc_irq
00000000 l    df *ABS*	00000000 alt_alarm_start.c
00000000 l    df *ABS*	00000000 alt_dcache_flush.c
00000000 l    df *ABS*	00000000 alt_dev_llist_insert.c
00090be8 l     F .text	0000003c alt_get_errno
00000000 l    df *ABS*	00000000 alt_do_ctors.c
00000000 l    df *ABS*	00000000 alt_do_dtors.c
00000000 l    df *ABS*	00000000 alt_find_dev.c
00000000 l    df *ABS*	00000000 alt_icache_flush_all.c
00000000 l    df *ABS*	00000000 alt_iic.c
00000000 l    df *ABS*	00000000 alt_iic_isr_register.c
00000000 l    df *ABS*	00000000 alt_io_redirect.c
000910ec l     F .text	000000c4 alt_open_fd
00000000 l    df *ABS*	00000000 alt_irq_vars.c
00000000 l    df *ABS*	00000000 alt_open.c
0009122c l     F .text	0000003c alt_get_errno
00091268 l     F .text	000000c4 alt_file_locked
00000000 l    df *ABS*	00000000 alt_tick.c
00000000 l    df *ABS*	00000000 altera_nios2_gen2_irq.c
00000000 l    df *ABS*	00000000 alt_find_file.c
00000000 l    df *ABS*	00000000 alt_get_fd.c
00000000 l    df *ABS*	00000000 alt_icache_flush.c
00000000 l    df *ABS*	00000000 atexit.c
00000000 l    df *ABS*	00000000 exit.c
00000000 l    df *ABS*	00000000 memcmp.c
00000000 l    df *ABS*	00000000 __atexit.c
00000000 l    df *ABS*	00000000 __call_atexit.c
00000000 l    df *ABS*	00000000 alt_exit.c
0009631c g     O .bss	00000004 alt_instruction_exception_handler
000830c4 g     F .text	00000018 putchar
00088aa0 g     F .text	00000074 _mprec_log10
00088b8c g     F .text	0000008c __any_on
0008af5c g     F .text	00000054 _isatty_r
0009217c g     O .rodata	00000028 __mprec_tinytens
0008e9ac g     F .text	0000007c alt_main
000830dc g     F .text	000000c0 _puts_r
000809c8 g     F .text	000002d8 rx_ethernet_isr
00096748 g     O .bss	00000100 alt_irq
000877d4 g     F .text	00000060 _lseek_r
00094358 g       *ABS*	00000000 __flash_rwdata_start
000962cc g     O .bss	00000004 conn
0008cf90 g     F .text	00000088 .hidden __eqdf2
00096848 g       *ABS*	00000000 __alt_heap_start
00083080 g     F .text	0000003c printf
0008fd1c g     F .text	00000110 alt_avalon_sgdma_do_sync_transfer
0008afb0 g     F .text	0000009c _wcrtomb_r
000832dc g     F .text	0000005c __sseek
00081f8c g     F .text	00000010 __sinit
0008aadc g     F .text	00000140 __swbuf_r
000814bc g     F .text	000000b4 recv
00080fbc g     F .text	0000021c connect
000876f8 g     F .text	0000007c _setlocale_r
00081df4 g     F .text	00000068 __sfmoreglue
0008ea4c g     F .text	00000024 __malloc_unlock
00090434 g     F .text	000003b8 alt_avalon_sgdma_construct_descriptor_burst
00081654 g     F .text	00000070 recDisconnect
00082dcc g     F .text	0000015c memmove
00081f74 g     F .text	00000018 _cleanup
000962b4 g     O .bss	00000004 in
00087c1c g     F .text	000000a8 _Balloc
000962d0 g     O .bss	00000004 timer
0008d018 g     F .text	000000dc .hidden __gtdf2
00091624 g     F .text	00000024 altera_nios2_gen2_irq_init
00080000 g     F .entry	0000001c __reset
0008ff84 g     F .text	00000078 alt_avalon_sgdma_construct_stream_to_mem_desc_burst
00080020 g       *ABS*	00000000 __flash_exceptions_start
0008af00 g     F .text	0000005c _fstat_r
000962f4 g     O .bss	00000004 errno
00083258 g     F .text	00000008 __seofread
00096308 g     O .bss	00000004 alt_argv
0009c30c g       *ABS*	00000000 _gp
000930cc g     O .rwdata	00000180 alt_fd_list
000830bc g     F .text	00000008 _putchar_r
00090d88 g     F .text	00000090 alt_find_dev
00087ad4 g     F .text	00000148 memcpy
00081c44 g     F .text	0000000c _cleanup_r
0008e27c g     F .text	000000dc .hidden __floatsidf
000911b0 g     F .text	0000007c alt_io_redirect
0008d0f4 g     F .text	000000f4 .hidden __ltdf2
00091cb4 g       *ABS*	00000000 __DTOR_END__
0008319c g     F .text	00000014 puts
00091884 g     F .text	0000009c alt_exception_cause_generated_bad_addr
00089344 g     F .text	00000074 __fpclassifyd
000889fc g     F .text	000000a4 __ratio
0008aa04 g     F .text	0000001c __vfiprintf_internal
0009007c g     F .text	0000008c alt_avalon_sgdma_construct_mem_to_stream_desc_burst
0008f77c g     F .text	0000021c altera_avalon_jtag_uart_read
00082598 g     F .text	00000014 malloc
00083050 g     F .text	00000030 _printf_r
0008bd40 g     F .text	00000064 .hidden __udivsi3
0009430c g     O .rwdata	00000004 tse
0008e70c g     F .text	000000a4 isatty
000921cc g     O .rodata	000000c8 __mprec_tens
00087774 g     F .text	0000000c __locale_charset
000917f4 g     F .text	00000090 alt_icache_flush
000962f0 g     O .bss	00000004 __malloc_top_pad
00094320 g     O .rwdata	00000004 __mb_cur_max
000877a4 g     F .text	0000000c _localeconv_r
00088028 g     F .text	0000003c __i2b
0008723c g     F .text	000004bc __sfvwrite_r
000901b4 g     F .text	0000005c alt_avalon_sgdma_stop
000831b0 g     F .text	00000054 _sbrk_r
00088d80 g     F .text	00000060 _read_r
00090b70 g     F .text	00000078 alt_dcache_flush
00094338 g     O .rwdata	00000004 alt_max_fd
00087138 g     F .text	000000f0 _fclose_r
00081c0c g     F .text	00000030 fflush
000962ec g     O .bss	00000004 __malloc_max_sbrked_mem
00080000 g       *ABS*	00000000 __alt_mem_main_memory
0008bdfc g     F .text	000008ac .hidden __adddf3
000962d4 g     O .bss	00000004 sentPacket
000887a4 g     F .text	0000010c __b2d
0008b710 g     F .text	00000538 .hidden __umoddi3
0008e8d8 g     F .text	000000d4 lseek
00094310 g     O .rwdata	00000004 _global_impure_ptr
00088de0 g     F .text	00000564 _realloc_r
00096848 g       *ABS*	00000000 __bss_end
00090ffc g     F .text	000000f0 alt_iic_isr_register
0008fbf8 g     F .text	00000124 alt_avalon_sgdma_do_async_transfer
0009151c g     F .text	00000108 alt_tick
00100060 g     O .descriptor_memory	00000020 rx_descriptor_end
0008b198 g     F .text	00000578 .hidden __udivdi3
000811d8 g     F .text	00000170 send
0008ae5c g     F .text	00000024 _fputwc_r
000921a4 g     O .rodata	00000028 __mprec_bigtens
00087e0c g     F .text	00000104 __s2b
0008e358 g     F .text	000000a8 .hidden __floatunsidf
000884e4 g     F .text	00000060 __mcmp
00081fac g     F .text	00000018 __fp_lock_all
00090fb0 g     F .text	0000004c alt_ic_irq_enabled
00091480 g     F .text	0000009c alt_alarm_stop
00100000 g       *ABS*	00000000 __alt_mem_descriptor_memory
00096310 g     O .bss	00000004 alt_irq_active
00092400 g     O .rwdata	00000400 tx_frame
000800fc g     F .exceptions	000000d4 alt_irq_handler
000930a4 g     O .rwdata	00000028 alt_dev_null
00081348 g     F .text	00000174 accept
00090210 g     F .text	00000064 alt_avalon_sgdma_check_descriptor_status
000962d8 g     O .bss	00000004 isConnected
0008e570 g     F .text	00000048 alt_dcache_flush_all
00087f10 g     F .text	00000068 __hi0bits
0008e1fc g     F .text	00000080 .hidden __fixdfsi
00100040 g     O .descriptor_memory	00000020 rx_descriptor
00094358 g       *ABS*	00000000 __ram_rwdata_end
00094330 g     O .rwdata	00000008 alt_dev_list
0008ef60 g     F .text	000000f8 write
00090354 g     F .text	00000080 alt_avalon_sgdma_enable_desc_poll
00088c18 g     F .text	000000a0 _putc_r
00092400 g       *ABS*	00000000 __ram_rodata_end
0008e620 g     F .text	000000b0 fstat
0008d0f4 g     F .text	000000f4 .hidden __ledf2
0008825c g     F .text	00000140 __pow5mult
000895a8 g     F .text	0000145c ___vfiprintf_internal_r
00096300 g     O .bss	00000004 __nlocale_changed
0008bda4 g     F .text	00000058 .hidden __umodsi3
0008fffc g     F .text	00000080 alt_avalon_sgdma_construct_mem_to_stream_desc
00090108 g     F .text	00000054 alt_avalon_sgdma_register_callback
00096848 g       *ABS*	00000000 end
00081570 g     F .text	000000e4 disconnect
0008f2b8 g     F .text	000000c0 altera_avalon_jtag_uart_init
000801d0 g     F .exceptions	00000074 alt_instruction_exception_entry
00091cb4 g       *ABS*	00000000 __CTOR_LIST__
000cb000 g       *ABS*	00000000 __alt_stack_pointer
000903d4 g     F .text	00000060 alt_avalon_sgdma_disable_desc_poll
000909c8 g     F .text	0000007c alt_avalon_timer_sc_init
0008e400 g     F .text	00000064 .hidden __clzsi2
0008f998 g     F .text	00000224 altera_avalon_jtag_uart_write
0008fe2c g     F .text	00000074 alt_avalon_sgdma_construct_mem_to_mem_desc
00081f9c g     F .text	00000004 __sfp_lock_acquire
000879f0 g     F .text	000000e4 memchr
000833d8 g     F .text	000021f8 ___vfprintf_internal_r
0008ff24 g     F .text	00000060 alt_avalon_sgdma_construct_stream_to_mem_desc
00082100 g     F .text	00000310 _free_r
0008ea70 g     F .text	0000022c alt_printf
00087780 g     F .text	00000010 __locale_mb_cur_max
00091b00 g     F .text	00000180 __call_exitprocs
000962fc g     O .bss	00000004 __mlocale_changed
00094318 g     O .rwdata	00000004 __malloc_sbrk_base
00080244 g     F .text	0000004c _start
00096314 g     O .bss	00000004 _alt_tick_rate
000962bc g     O .bss	00000004 sgdma_tx_dev
00090274 g     F .text	00000054 alt_avalon_sgdma_open
0008839c g     F .text	00000148 __lshift
00096318 g     O .bss	00000004 _alt_nticks
0008ed14 g     F .text	000000fc read
0008f0c4 g     F .text	00000090 alt_sys_init
000962b8 g     O .bss	00000004 transmissionStatus
000919e8 g     F .text	00000118 __register_exitproc
000962dc g     O .bss	00000005 buffer
00088064 g     F .text	000001f8 __multiply
0008f624 g     F .text	00000068 altera_avalon_jtag_uart_close
00092400 g       *ABS*	00000000 __ram_rwdata_start
00091cb4 g       *ABS*	00000000 __ram_rodata_start
00096720 g     O .bss	00000028 __malloc_current_mallinfo
000888b0 g     F .text	0000014c __d2b
0008f154 g     F .text	00000060 altera_avalon_jtag_uart_read_fd
00091750 g     F .text	000000a4 alt_get_fd
0008585c g     F .text	00000054 _close_r
0009196c g     F .text	0000007c memcmp
0008f214 g     F .text	00000050 altera_avalon_jtag_uart_close_fd
00096848 g       *ABS*	00000000 __alt_stack_base
0008f264 g     F .text	00000054 altera_avalon_jtag_uart_ioctl_fd
00085708 g     F .text	00000154 __swsetup_r
0008c6a8 g     F .text	000008e8 .hidden __divdf3
00081e5c g     F .text	00000118 __sfp
00088b14 g     F .text	00000078 __copybits
00092c24 g     O .rwdata	00000408 __malloc_av_
00081fa8 g     F .text	00000004 __sinit_lock_release
0008d1e8 g     F .text	00000718 .hidden __muldf3
00083204 g     F .text	00000054 __sread
00091648 g     F .text	00000108 alt_find_file
00090c24 g     F .text	000000a4 alt_dev_llist_insert
0008ea28 g     F .text	00000024 __malloc_lock
0008ee74 g     F .text	000000b0 sbrk
0009015c g     F .text	00000058 alt_avalon_sgdma_start
00081bb0 g     F .text	0000005c _fflush_r
0008ac34 g     F .text	000000c4 _calloc_r
000962b0 g       *ABS*	00000000 __bss_start
00082f28 g     F .text	00000128 memset
000816c4 g     F .text	000002d0 main
0009630c g     O .bss	00000004 alt_envp
000962e8 g     O .bss	00000004 __malloc_max_total_mem
0008f1b4 g     F .text	00000060 altera_avalon_jtag_uart_write_fd
0008ac1c g     F .text	00000018 __swbuf
00094344 g     O .rwdata	00000008 alt_sgdma_list
00083338 g     F .text	00000008 __sclose
000cb000 g       *ABS*	00000000 __alt_heap_limit
00087228 g     F .text	00000014 fclose
00085ab0 g     F .text	00001688 _dtoa_r
000825c0 g     F .text	0000080c _malloc_r
0008b10c g     F .text	00000030 __ascii_wctomb
0009433c g     O .rwdata	00000004 alt_errno
00100000 g     O .descriptor_memory	00000020 tx_descriptor
00096320 g     O .bss	00000400 rx_frame
00082410 g     F .text	000000c4 _fwalk
00088cb8 g     F .text	000000c8 putc
0008bc48 g     F .text	00000084 .hidden __divsi3
00081fdc g     F .text	00000124 _malloc_trim_r
00091cb4 g       *ABS*	00000000 __CTOR_END__
000962c4 g     O .bss	00000004 seqNumber
000893b8 g     F .text	000000dc strcmp
00080290 g     F .text	00000420 transmit
00091cb4 g       *ABS*	00000000 __flash_rodata_start
00091cb4 g       *ABS*	00000000 __DTOR_LIST__
000962b0 g     O .bss	00000004 count
0008cf90 g     F .text	00000088 .hidden __nedf2
0008f08c g     F .text	00000038 alt_irq_init
0008ee10 g     F .text	00000064 alt_release_fd
000922b4 g     O .rodata	00000100 .hidden __clz_tab
000962f8 g     O .bss	00000004 _PathLocale
00091920 g     F .text	00000014 atexit
000856a8 g     F .text	00000060 _write_r
000877b0 g     F .text	00000018 setlocale
000962c8 g     O .bss	00000004 ackNumber
00094314 g     O .rwdata	00000004 _impure_ptr
00096304 g     O .bss	00000004 alt_argc
000806b0 g     F .text	00000318 receive
00081994 g     F .text	0000021c __sflush_r
00090d28 g     F .text	00000060 _do_dtors
0008779c g     F .text	00000008 __locale_cjk_lang
00080020 g       .exceptions	00000000 alt_irq_entry
00088740 g     F .text	00000064 __ulp
00081fc4 g     F .text	00000018 __fp_unlock_all
00094328 g     O .rwdata	00000008 alt_fs_list
00080020 g       *ABS*	00000000 __ram_exceptions_start
000877c8 g     F .text	0000000c localeconv
00090e4c g     F .text	00000050 alt_ic_isr_register
00094358 g       *ABS*	00000000 _edata
00096848 g       *ABS*	00000000 _end
0008acf8 g     F .text	00000164 __fputwc
00080244 g       *ABS*	00000000 __ram_exceptions_end
0008f68c g     F .text	000000f0 altera_avalon_jtag_uart_ioctl
00080ca0 g     F .text	0000031c tx_ethernet_isr
00090f24 g     F .text	0000008c alt_ic_irq_disable
00100020 g     O .descriptor_memory	00000020 tx_descriptor_end
000902c8 g     F .text	0000008c alt_avalon_sgdma_construct_descriptor
00083260 g     F .text	0000007c __swrite
0009431c g     O .rwdata	00000004 __malloc_trim_threshold
00087790 g     F .text	0000000c __locale_msgcharset
00091934 g     F .text	00000038 exit
000824d4 g     F .text	000000c4 _fwalk_reent
00088544 g     F .text	000001fc __mdiff
0008bccc g     F .text	00000074 .hidden __modsi3
000cb000 g       *ABS*	00000000 __alt_data_end
00080020 g     F .exceptions	00000000 alt_exception
00081fa0 g     F .text	00000004 __sfp_lock_release
000962c0 g     O .bss	00000004 sgdma_rx_dev
00091c80 g     F .text	00000034 _exit
00090a44 g     F .text	0000012c alt_alarm_start
00087834 g     F .text	000001bc __smakebuf_r
00083340 g     F .text	00000098 strlen
0009132c g     F .text	00000154 open
0008d018 g     F .text	000000dc .hidden __gedf2
0008ec9c g     F .text	0000003c alt_putchar
00094324 g     O .rwdata	00000004 __wctomb
00089590 g     F .text	00000018 __sprint_r
00090e18 g     F .text	00000034 alt_icache_flush_all
0009434c g     O .rwdata	00000004 alt_priority_mask
00090e9c g     F .text	00000088 alt_ic_irq_enable
000855d0 g     F .text	0000001c __vfprintf_internal
0008b13c g     F .text	0000005c _wctomb_r
0008fea0 g     F .text	00000084 alt_avalon_sgdma_construct_mem_to_mem_desc_burst
0008d900 g     F .text	000008fc .hidden __subdf3
00087f78 g     F .text	000000b0 __lo0bits
00094350 g     O .rwdata	00000008 alt_alarm_list
00090cc8 g     F .text	00000060 _do_ctors
0008b04c g     F .text	000000c0 wcrtomb
0008e4a0 g     F .text	000000d0 close
0008e818 g     F .text	00000084 alt_load
000908a8 g     F .text	000000a8 alt_avalon_sgdma_init
0008ae80 g     F .text	00000080 fputwc
000825ac g     F .text	00000014 free
000962e4 g     O .bss	00000004 pack
00081fa4 g     F .text	00000004 __sinit_lock_acquire
00087cec g     F .text	00000120 __multadd
00087cc4 g     F .text	00000028 _Bfree



Disassembly of section .entry:

00080000 <__reset>:
#if NIOS2_ICACHE_SIZE > 0 && defined(ALT_ALLOW_CODE_AT_RESET) && (!defined(ALT_SIM_OPTIMIZE) || defined(NIOS2_ECC_PRESENT))
    /* Assume the instruction cache size is always a power of two. */
#if NIOS2_ICACHE_SIZE > 0x8000
    movhi r2, %hi(NIOS2_ICACHE_SIZE)
#else
    movui r2, NIOS2_ICACHE_SIZE
   80000:	00840014 	movui	r2,4096
#endif

0:
    initi r2
   80004:	1001483a 	initi	r2
    addi r2, r2, -NIOS2_ICACHE_LINE_SIZE
   80008:	10bff804 	addi	r2,r2,-32
    bgt r2, zero, 0b
   8000c:	00bffd16 	blt	zero,r2,80004 <rx_descriptor_end+0xfff7ffa4>
 * Jump to the _start entry point in the .text section if reset code
 * is allowed or if optimizing for RTL simulation.
 */
#if defined(ALT_ALLOW_CODE_AT_RESET) || defined(ALT_SIM_OPTIMIZE)
    /* Jump to the _start entry point in the .text section. */
    movhi r1, %hi(_start)
   80010:	00400234 	movhi	at,8
    ori r1, r1, %lo(_start)
   80014:	08409114 	ori	at,at,580
    jmp r1
   80018:	0800683a 	jmp	at
   8001c:	00000000 	call	0 <__alt_mem_main_memory-0x80000>

Disassembly of section .exceptions:

00080020 <alt_exception>:

#else /* ALT_EXCEPTION_STACK disabled */
        /* 
         * Reserve space on normal stack for registers about to be pushed.
         */
        addi  sp, sp, -76
   80020:	deffed04 	addi	sp,sp,-76
         * documentation for details).
         *
         * Leave a gap in the stack frame at 4(sp) for the muldiv handler to
         * store zero into.
         */
        stw   ra,  0(sp)
   80024:	dfc00015 	stw	ra,0(sp)
        stw   r1,   8(sp)
   80028:	d8400215 	stw	at,8(sp)
        stw   r2,  12(sp)
   8002c:	d8800315 	stw	r2,12(sp)
        stw   r3,  16(sp)
   80030:	d8c00415 	stw	r3,16(sp)
        stw   r4,  20(sp)
   80034:	d9000515 	stw	r4,20(sp)
        stw   r5,  24(sp)
   80038:	d9400615 	stw	r5,24(sp)
        stw   r6,  28(sp)
   8003c:	d9800715 	stw	r6,28(sp)
        stw   r7,  32(sp)
   80040:	d9c00815 	stw	r7,32(sp)
        rdctl r5, estatus   /* Read early to avoid usage stall */
   80044:	000b307a 	rdctl	r5,estatus
        stw   r8,  36(sp)
   80048:	da000915 	stw	r8,36(sp)
        stw   r9,  40(sp)
   8004c:	da400a15 	stw	r9,40(sp)
        stw   r10, 44(sp)
   80050:	da800b15 	stw	r10,44(sp)
        stw   r11, 48(sp)
   80054:	dac00c15 	stw	r11,48(sp)
        stw   r12, 52(sp)
   80058:	db000d15 	stw	r12,52(sp)
        stw   r13, 56(sp)
   8005c:	db400e15 	stw	r13,56(sp)
        stw   r14, 60(sp)
   80060:	db800f15 	stw	r14,60(sp)
        stw   r15, 64(sp)
   80064:	dbc01015 	stw	r15,64(sp)
        /*
         * ea-4 contains the address of the instruction being executed
         * when the exception occured. For interrupt exceptions, we will
         * will be re-issue the isntruction. Store it in 72(sp)
         */
        stw   r5,  68(sp)  /* estatus */
   80068:	d9401115 	stw	r5,68(sp)
        addi  r15, ea, -4  /* instruction that caused exception */
   8006c:	ebffff04 	addi	r15,ea,-4
        stw   r15,  72(sp)
   80070:	dbc01215 	stw	r15,72(sp)
#else
        /*
         * Test to see if the exception was a software exception or caused 
         * by an external interrupt, and vector accordingly.
         */
        rdctl r4, ipending
   80074:	0009313a 	rdctl	r4,ipending
        andi  r2, r5, 1
   80078:	2880004c 	andi	r2,r5,1
        beq   r2, zero, .Lnot_irq
   8007c:	10000326 	beq	r2,zero,8008c <alt_exception+0x6c>
        beq   r4, zero, .Lnot_irq
   80080:	20000226 	beq	r4,zero,8008c <alt_exception+0x6c>
        /*
         * Now that all necessary registers have been preserved, call 
         * alt_irq_handler() to process the interrupts.
         */

        call alt_irq_handler
   80084:	00800fc0 	call	800fc <alt_irq_handler>

        .section .exceptions.irqreturn, "xa"

        br    .Lexception_exit
   80088:	00000706 	br	800a8 <alt_exception+0x88>
         * upon completion, so we write ea (address of instruction *after*
         * the one where the exception occured) into 72(sp). The actual
         * instruction that caused the exception is written in r2, which these
         * handlers will utilize.
         */
        stw ea, 72(sp) /* EA is PC+4 so will skip over instruction causing exception */
   8008c:	df401215 	stw	ea,72(sp)
.Lunknown_16bit:
        addi.n r4, r4, 2 /* Need PC+2 to skip over instruction causing exception */
        stw r4, 72(sp)

#else /* CDX is not Enabled and all instructions are 32bits */
        ldw r2, -4(ea) /* Instruction value that caused exception */
   80090:	e8bfff17 	ldw	r2,-4(ea)
         * debugger is present) or go into an infinite loop since the
         * handling behavior is undefined; in that case we will not return here.
         */

        /* Load exception-causing address as first argument (r4) */
        addi   r4, ea, -4
   80094:	e93fff04 	addi	r4,ea,-4

        /* Call the instruction-exception entry */
        call   alt_instruction_exception_entry
   80098:	00801d00 	call	801d0 <alt_instruction_exception_entry>
         * instruction
         *
         * Return code was 0: Skip. The instruction after the exception is
         * already stored in 72(sp).
         */
        bne   r2, r0, .Lexception_exit
   8009c:	1000021e 	bne	r2,zero,800a8 <alt_exception+0x88>

        /*
         * Otherwise, modify 72(sp) to re-issue the instruction that caused the
         * exception.
         */
        addi  r15, ea, -4  /* instruction that caused exception */
   800a0:	ebffff04 	addi	r15,ea,-4
        stw   r15,  72(sp)
   800a4:	dbc01215 	stw	r15,72(sp)
        /* 
         * Restore the saved registers, so that all general purpose registers 
         * have been restored to their state at the time the interrupt occured.
         */

        ldw   r5,  68(sp)
   800a8:	d9401117 	ldw	r5,68(sp)
        ldw   ea,  72(sp)  /* This becomes the PC once eret is executed */
   800ac:	df401217 	ldw	ea,72(sp)
        ldw   ra,   0(sp)
   800b0:	dfc00017 	ldw	ra,0(sp)

        wrctl estatus, r5
   800b4:	2801707a 	wrctl	estatus,r5

        ldw   r1,   8(sp)
   800b8:	d8400217 	ldw	at,8(sp)
        ldw   r2,  12(sp)
   800bc:	d8800317 	ldw	r2,12(sp)
        ldw   r3,  16(sp)
   800c0:	d8c00417 	ldw	r3,16(sp)
        ldw   r4,  20(sp)
   800c4:	d9000517 	ldw	r4,20(sp)
        ldw   r5,  24(sp)
   800c8:	d9400617 	ldw	r5,24(sp)
        ldw   r6,  28(sp)
   800cc:	d9800717 	ldw	r6,28(sp)
        ldw   r7,  32(sp)
   800d0:	d9c00817 	ldw	r7,32(sp)

#if defined(ALT_EXCEPTION_STACK) && defined(ALT_STACK_CHECK)
        ldw   et, %gprel(alt_exception_old_stack_limit)(gp)
#endif

        ldw   r8,  36(sp)
   800d4:	da000917 	ldw	r8,36(sp)
        ldw   r9,  40(sp)
   800d8:	da400a17 	ldw	r9,40(sp)
        ldw   r10, 44(sp)
   800dc:	da800b17 	ldw	r10,44(sp)
        ldw   r11, 48(sp)
   800e0:	dac00c17 	ldw	r11,48(sp)
        ldw   r12, 52(sp)
   800e4:	db000d17 	ldw	r12,52(sp)
        ldw   r13, 56(sp)
   800e8:	db400e17 	ldw	r13,56(sp)
        ldw   r14, 60(sp)
   800ec:	db800f17 	ldw	r14,60(sp)
        ldw   r15, 64(sp)
   800f0:	dbc01017 	ldw	r15,64(sp)
        stw   et, %gprel(alt_stack_limit_value)(gp)
        stw   zero, %gprel(alt_exception_old_stack_limit)(gp)
#endif /* ALT_STACK_CHECK */
        ldw   sp,  76(sp)
#else /* ALT_EXCEPTION_STACK disabled */
        addi  sp, sp, 76
   800f4:	dec01304 	addi	sp,sp,76

        /*
         * Return to the interrupted instruction.
         */

        eret
   800f8:	ef80083a 	eret

000800fc <alt_irq_handler>:
 * instruction is present if the macro ALT_CI_INTERRUPT_VECTOR defined.
 */

void alt_irq_handler (void) __attribute__ ((section (".exceptions")));
void alt_irq_handler (void)
{
   800fc:	defff904 	addi	sp,sp,-28
   80100:	dfc00615 	stw	ra,24(sp)
   80104:	df000515 	stw	fp,20(sp)
   80108:	df000504 	addi	fp,sp,20
  
  /*
   * Notify the operating system that we are at interrupt level.
   */ 
  
  ALT_OS_INT_ENTER();
   8010c:	0001883a 	nop
#ifndef NIOS2_EIC_PRESENT
static ALT_INLINE alt_u32 ALT_ALWAYS_INLINE alt_irq_pending (void)
{
  alt_u32 active;

  NIOS2_READ_IPENDING (active);
   80110:	0005313a 	rdctl	r2,ipending
   80114:	e0bffe15 	stw	r2,-8(fp)

  return active;
   80118:	e0bffe17 	ldw	r2,-8(fp)
   * Consider the case where the high priority interupt is asserted during
   * the interrupt entry sequence for a lower priority interrupt to see why
   * this is the case.
   */

  active = alt_irq_pending ();
   8011c:	e0bffb15 	stw	r2,-20(fp)

  do
  {
    i = 0;
   80120:	e03ffd15 	stw	zero,-12(fp)
    mask = 1;
   80124:	00800044 	movi	r2,1
   80128:	e0bffc15 	stw	r2,-16(fp)
     * called to clear the interrupt condition.
     */

    do
    {
      if (active & mask)
   8012c:	e0fffb17 	ldw	r3,-20(fp)
   80130:	e0bffc17 	ldw	r2,-16(fp)
   80134:	1884703a 	and	r2,r3,r2
   80138:	10001426 	beq	r2,zero,8018c <alt_irq_handler+0x90>
      { 
#ifdef ALT_ENHANCED_INTERRUPT_API_PRESENT
        alt_irq[i].handler(alt_irq[i].context); 
   8013c:	00800274 	movhi	r2,9
   80140:	1099d204 	addi	r2,r2,26440
   80144:	e0fffd17 	ldw	r3,-12(fp)
   80148:	180690fa 	slli	r3,r3,3
   8014c:	10c5883a 	add	r2,r2,r3
   80150:	10c00017 	ldw	r3,0(r2)
   80154:	00800274 	movhi	r2,9
   80158:	1099d204 	addi	r2,r2,26440
   8015c:	e13ffd17 	ldw	r4,-12(fp)
   80160:	200890fa 	slli	r4,r4,3
   80164:	1105883a 	add	r2,r2,r4
   80168:	10800104 	addi	r2,r2,4
   8016c:	10800017 	ldw	r2,0(r2)
   80170:	1009883a 	mov	r4,r2
   80174:	183ee83a 	callr	r3
#else
        alt_irq[i].handler(alt_irq[i].context, i); 
#endif
        break;
   80178:	0001883a 	nop
#ifndef NIOS2_EIC_PRESENT
static ALT_INLINE alt_u32 ALT_ALWAYS_INLINE alt_irq_pending (void)
{
  alt_u32 active;

  NIOS2_READ_IPENDING (active);
   8017c:	0005313a 	rdctl	r2,ipending
   80180:	e0bfff15 	stw	r2,-4(fp)

  return active;
   80184:	e0bfff17 	ldw	r2,-4(fp)
   80188:	00000706 	br	801a8 <alt_irq_handler+0xac>
      }
      mask <<= 1;
   8018c:	e0bffc17 	ldw	r2,-16(fp)
   80190:	1085883a 	add	r2,r2,r2
   80194:	e0bffc15 	stw	r2,-16(fp)
      i++;
   80198:	e0bffd17 	ldw	r2,-12(fp)
   8019c:	10800044 	addi	r2,r2,1
   801a0:	e0bffd15 	stw	r2,-12(fp)

    } while (1);
   801a4:	003fe106 	br	8012c <rx_descriptor_end+0xfff800cc>

    active = alt_irq_pending ();
   801a8:	e0bffb15 	stw	r2,-20(fp)
    
  } while (active);
   801ac:	e0bffb17 	ldw	r2,-20(fp)
   801b0:	103fdb1e 	bne	r2,zero,80120 <rx_descriptor_end+0xfff800c0>

  /*
   * Notify the operating system that interrupt processing is complete.
   */ 

  ALT_OS_INT_EXIT();
   801b4:	0001883a 	nop
}
   801b8:	0001883a 	nop
   801bc:	e037883a 	mov	sp,fp
   801c0:	dfc00117 	ldw	ra,4(sp)
   801c4:	df000017 	ldw	fp,0(sp)
   801c8:	dec00204 	addi	sp,sp,8
   801cc:	f800283a 	ret

000801d0 <alt_instruction_exception_entry>:
 * that handler if it has been registered. Absent a handler, it will
 * break break or hang as discussed below.
 */
int 
alt_instruction_exception_entry (alt_u32 exception_pc)
{
   801d0:	defffb04 	addi	sp,sp,-20
   801d4:	dfc00415 	stw	ra,16(sp)
   801d8:	df000315 	stw	fp,12(sp)
   801dc:	df000304 	addi	fp,sp,12
   801e0:	e13fff15 	stw	r4,-4(fp)
 * NIOS2_EXCEPTION_CAUSE_NOT_PRESENT. Your handling routine should
 * check the validity of the cause argument before proceeding.
 */
#ifdef NIOS2_HAS_EXTRA_EXCEPTION_INFO
  /* Get exception cause & "badaddr" */
  NIOS2_READ_EXCEPTION(cause);
   801e4:	000531fa 	rdctl	r2,exception
   801e8:	e0bffd15 	stw	r2,-12(fp)
  cause = ( (cause & NIOS2_EXCEPTION_REG_CAUSE_MASK) >>
   801ec:	e0bffd17 	ldw	r2,-12(fp)
   801f0:	10801f0c 	andi	r2,r2,124
   801f4:	1004d0ba 	srli	r2,r2,2
   801f8:	e0bffd15 	stw	r2,-12(fp)
              NIOS2_EXCEPTION_REG_CAUSE_OFST );

  NIOS2_READ_BADADDR(badaddr);
   801fc:	0005333a 	rdctl	r2,badaddr
   80200:	e0bffe15 	stw	r2,-8(fp)
#else
  cause = NIOS2_EXCEPTION_CAUSE_NOT_PRESENT;
  badaddr = 0;
#endif /* NIOS2_HAS_EXTRA_EXCEPTION_INFO */

  if(alt_instruction_exception_handler) {
   80204:	d0a80417 	ldw	r2,-24560(gp)
   80208:	10000726 	beq	r2,zero,80228 <alt_instruction_exception_entry+0x58>
     * Call handler. Its return value indicates whether the exception-causing
     * instruction should be re-issued. The code that called us,
     * alt_eceptions_entry.S, will look at this value and adjust the ea
     * register as necessary
     */
    return alt_instruction_exception_handler(cause, exception_pc, badaddr);
   8020c:	d0a80417 	ldw	r2,-24560(gp)
   80210:	e0fffd17 	ldw	r3,-12(fp)
   80214:	e1bffe17 	ldw	r6,-8(fp)
   80218:	e17fff17 	ldw	r5,-4(fp)
   8021c:	1809883a 	mov	r4,r3
   80220:	103ee83a 	callr	r2
   80224:	00000206 	br	80230 <alt_instruction_exception_entry+0x60>
   *    (a peripheral which negates its interrupt output before its
   *    interrupt handler has been executed will cause spurious interrupts)
   */
  else {
#ifdef NIOS2_HAS_DEBUG_STUB
    NIOS2_BREAK();
   80228:	003da03a 	break	0
      ;
#endif /* NIOS2_HAS_DEBUG_STUB */
  }

  /* We should not get here. Remove compiler warning. */
  return NIOS2_EXCEPTION_RETURN_REISSUE_INST;
   8022c:	0005883a 	mov	r2,zero
}
   80230:	e037883a 	mov	sp,fp
   80234:	dfc00117 	ldw	ra,4(sp)
   80238:	df000017 	ldw	fp,0(sp)
   8023c:	dec00204 	addi	sp,sp,8
   80240:	f800283a 	ret

Disassembly of section .text:

00080244 <_start>:

    /* Assume the data cache size is always a power of two. */
#if NIOS2_DCACHE_SIZE > 0x8000
    movhi r2, %hi(NIOS2_DCACHE_SIZE)
#else
    movui r2, NIOS2_DCACHE_SIZE
   80244:	00820014 	movui	r2,2048
#endif

0:
    initd 0(r2)
   80248:	10000033 	initd	0(r2)
#ifdef NIOS2_ECC_PRESENT
    addi r2, r2, -4
#else
    addi r2, r2, -NIOS2_DCACHE_LINE_SIZE
   8024c:	10bff804 	addi	r2,r2,-32
#endif
    bgt r2, zero, 0b
   80250:	00bffd16 	blt	zero,r2,80248 <rx_descriptor_end+0xfff801e8>

    /*
     * Now that the caches are initialized, set up the stack pointer and global pointer.
     * The values provided by the linker are assumed to be correctly aligned.
     */
    movhi sp, %hi(__alt_stack_pointer)
   80254:	06c00334 	movhi	sp,12
    ori sp, sp, %lo(__alt_stack_pointer)
   80258:	deec0014 	ori	sp,sp,45056
    movhi gp, %hi(_gp)
   8025c:	06800274 	movhi	gp,9
    ori gp, gp, %lo(_gp)
   80260:	d6b0c314 	ori	gp,gp,49932
 */
#ifndef ALT_SIM_OPTIMIZE
    /* Log that the BSS is about to be cleared. */
    ALT_LOG_PUTS(alt_log_msg_bss)

    movhi r2, %hi(__bss_start)
   80264:	00800274 	movhi	r2,9
    ori r2, r2, %lo(__bss_start)
   80268:	1098ac14 	ori	r2,r2,25264

    movhi r3, %hi(__bss_end)
   8026c:	00c00274 	movhi	r3,9
    ori r3, r3, %lo(__bss_end)
   80270:	18da1214 	ori	r3,r3,26696

    beq r2, r3, 1f
   80274:	10c00326 	beq	r2,r3,80284 <_start+0x40>

0:
    stw zero, (r2)
   80278:	10000015 	stw	zero,0(r2)
    addi r2, r2, 4
   8027c:	10800104 	addi	r2,r2,4
    bltu r2, r3, 0b
   80280:	10fffd36 	bltu	r2,r3,80278 <rx_descriptor_end+0xfff80218>
     * section aren't defined until alt_load() has been called).
     */
    mov   et, zero
#endif

    call alt_load
   80284:	008e8180 	call	8e818 <alt_load>

    /* Log that alt_main is about to be called. */
    ALT_LOG_PUTS(alt_log_msg_alt_main)

    /* Call the C entry point. It should never return. */
    call alt_main
   80288:	008e9ac0 	call	8e9ac <alt_main>

0008028c <alt_after_alt_main>:

    /* Wait in infinite loop in case alt_main does return. */
alt_after_alt_main:
    br alt_after_alt_main
   8028c:	003fff06 	br	8028c <rx_descriptor_end+0xfff8022c>

00080290 <transmit>:
alt_sgdma_descriptor rx_descriptor  	__attribute__ (( section ( ".descriptor_memory" )));
alt_sgdma_descriptor rx_descriptor_end  __attribute__ (( section ( ".descriptor_memory" )));

int transmissionStatus = 0;

int transmit(int device, struct packet * pack){
   80290:	defff704 	addi	sp,sp,-36
   80294:	dfc00815 	stw	ra,32(sp)
   80298:	df000715 	stw	fp,28(sp)
   8029c:	df000704 	addi	fp,sp,28
   802a0:	e13ffe15 	stw	r4,-8(fp)
   802a4:	e17fff15 	stw	r5,-4(fp)

	//Specify the addresses of the PHY devices to be accessed through MDIO interface
	if(!device){
   802a8:	e0bffe17 	ldw	r2,-8(fp)
   802ac:	1000051e 	bne	r2,zero,802c4 <transmit+0x34>
		*(tse + 0x0F) = 0x10;
   802b0:	d0a00017 	ldw	r2,-32768(gp)
   802b4:	10800f04 	addi	r2,r2,60
   802b8:	00c00404 	movi	r3,16
   802bc:	10c00015 	stw	r3,0(r2)
   802c0:	00000406 	br	802d4 <transmit+0x44>
	}
	else {
		*(tse + 0x0F) = 0x11;
   802c4:	d0a00017 	ldw	r2,-32768(gp)
   802c8:	10800f04 	addi	r2,r2,60
   802cc:	00c00444 	movi	r3,17
   802d0:	10c00015 	stw	r3,0(r2)
	}

	// Disable read and write transfers and wait
	*(tse + 0x02) = *(tse + 0x02) | 0x00800220;
   802d4:	d0a00017 	ldw	r2,-32768(gp)
   802d8:	10c00204 	addi	r3,r2,8
   802dc:	d0a00017 	ldw	r2,-32768(gp)
   802e0:	10800204 	addi	r2,r2,8
   802e4:	11000017 	ldw	r4,0(r2)
   802e8:	00802034 	movhi	r2,128
   802ec:	10808804 	addi	r2,r2,544
   802f0:	2084b03a 	or	r2,r4,r2
   802f4:	18800015 	stw	r2,0(r3)
	while ( *(tse + 0x02) != ( *(tse +0x02 ) | 0x00800220));
   802f8:	0001883a 	nop
   802fc:	d0a00017 	ldw	r2,-32768(gp)
   80300:	10800204 	addi	r2,r2,8
   80304:	10c00017 	ldw	r3,0(r2)
   80308:	d0a00017 	ldw	r2,-32768(gp)
   8030c:	10800204 	addi	r2,r2,8
   80310:	11000017 	ldw	r4,0(r2)
   80314:	00802034 	movhi	r2,128
   80318:	10808804 	addi	r2,r2,544
   8031c:	2084b03a 	or	r2,r4,r2
   80320:	18bff61e 	bne	r3,r2,802fc <rx_descriptor_end+0xfff8029c>

	//MAC FIFO Configuration
	*(tse + 0x09) = TSE_TRANSMIT_FIFO_DEPTH-16;//tx_section_empty
   80324:	d0a00017 	ldw	r2,-32768(gp)
   80328:	10800904 	addi	r2,r2,36
   8032c:	00c1fc04 	movi	r3,2032
   80330:	10c00015 	stw	r3,0(r2)
	*(tse + 0x0E ) = 0x03;//tx_almost_full
   80334:	d0a00017 	ldw	r2,-32768(gp)
   80338:	10800e04 	addi	r2,r2,56
   8033c:	00c000c4 	movi	r3,3
   80340:	10c00015 	stw	r3,0(r2)
	*(tse + 0x0D ) = 0x08;//tx_almost_empty
   80344:	d0a00017 	ldw	r2,-32768(gp)
   80348:	10800d04 	addi	r2,r2,52
   8034c:	00c00204 	movi	r3,8
   80350:	10c00015 	stw	r3,0(r2)
	*(tse + 0x07 ) = TSE_RECEIVE_FIFO_DEPTH-16;//rx_section_empty
   80354:	d0a00017 	ldw	r2,-32768(gp)
   80358:	10800704 	addi	r2,r2,28
   8035c:	00c1fc04 	movi	r3,2032
   80360:	10c00015 	stw	r3,0(r2)
	*(tse + 0x0C ) = 0x08;//rx_almost_full
   80364:	d0a00017 	ldw	r2,-32768(gp)
   80368:	10800c04 	addi	r2,r2,48
   8036c:	00c00204 	movi	r3,8
   80370:	10c00015 	stw	r3,0(r2)
	*(tse + 0x0B ) = 0x08;//rx_almost_empty
   80374:	d0a00017 	ldw	r2,-32768(gp)
   80378:	10800b04 	addi	r2,r2,44
   8037c:	00c00204 	movi	r3,8
   80380:	10c00015 	stw	r3,0(r2)
	*(tse + 0x0A ) = 0x00;//tx_section_full
   80384:	d0a00017 	ldw	r2,-32768(gp)
   80388:	10800a04 	addi	r2,r2,40
   8038c:	10000015 	stw	zero,0(r2)
	*(tse + 0x08 ) = 0x00;//rx_section_full
   80390:	d0a00017 	ldw	r2,-32768(gp)
   80394:	10800804 	addi	r2,r2,32
   80398:	10000015 	stw	zero,0(r2)

	// Initialize the MAC address
	if(!device){
   8039c:	e0bffe17 	ldw	r2,-8(fp)
   803a0:	10000a1e 	bne	r2,zero,803cc <transmit+0x13c>
		*(tse + 0x03) = 0x17231C00;
   803a4:	d0a00017 	ldw	r2,-32768(gp)
   803a8:	10c00304 	addi	r3,r2,12
   803ac:	0085c8f4 	movhi	r2,5923
   803b0:	10870004 	addi	r2,r2,7168
   803b4:	18800015 	stw	r2,0(r3)
		*(tse + 0x04) = 0x0000CB4A;
   803b8:	d0a00017 	ldw	r2,-32768(gp)
   803bc:	10800404 	addi	r2,r2,16
   803c0:	00f2d294 	movui	r3,52042
   803c4:	10c00015 	stw	r3,0(r2)
   803c8:	00000906 	br	803f0 <transmit+0x160>
	}
	else {
		//MAC2: C8-16-0B-93-67-DA
		*(tse + 0x03) = 0x930B16C8;
   803cc:	d0a00017 	ldw	r2,-32768(gp)
   803d0:	10c00304 	addi	r3,r2,12
   803d4:	00a4c2f4 	movhi	r2,37643
   803d8:	1085b204 	addi	r2,r2,5832
   803dc:	18800015 	stw	r2,0(r3)
		*(tse + 0x04) = 0x0000DA67;
   803e0:	d0a00017 	ldw	r2,-32768(gp)
   803e4:	10800404 	addi	r2,r2,16
   803e8:	00f699d4 	movui	r3,55911
   803ec:	10c00015 	stw	r3,0(r2)
	}
	// MAC function configuration
	*(tse + 0x05) = 1518;//frame length
   803f0:	d0a00017 	ldw	r2,-32768(gp)
   803f4:	10800504 	addi	r2,r2,20
   803f8:	00c17b84 	movi	r3,1518
   803fc:	10c00015 	stw	r3,0(r2)
	*(tse + 0x17) = 12;//tx_ipg_length
   80400:	d0a00017 	ldw	r2,-32768(gp)
   80404:	10801704 	addi	r2,r2,92
   80408:	00c00304 	movi	r3,12
   8040c:	10c00015 	stw	r3,0(r2)
	*(tse + 0x06) = 0xFFFF;//pause_quanta
   80410:	d0a00017 	ldw	r2,-32768(gp)
   80414:	10800604 	addi	r2,r2,24
   80418:	00ffffd4 	movui	r3,65535
   8041c:	10c00015 	stw	r3,0(r2)
	*(tse + 0x02) = 0x00800220;//config register
   80420:	d0a00017 	ldw	r2,-32768(gp)
   80424:	10c00204 	addi	r3,r2,8
   80428:	00802034 	movhi	r2,128
   8042c:	10808804 	addi	r2,r2,544
   80430:	18800015 	stw	r2,0(r3)

	// Software reset the PHY chip and wait
	*(tse + 0x02) =  0x00802220;
   80434:	d0a00017 	ldw	r2,-32768(gp)
   80438:	10c00204 	addi	r3,r2,8
   8043c:	00802034 	movhi	r2,128
   80440:	10888804 	addi	r2,r2,8736
   80444:	18800015 	stw	r2,0(r3)
	alt_printf("Setting the reset tx");
   80448:	01000274 	movhi	r4,9
   8044c:	21072d04 	addi	r4,r4,7348
   80450:	008ea700 	call	8ea70 <alt_printf>
	while ( *(tse + 0x02) != ( 0x00800220 ) ) printf(" ");
   80454:	00000206 	br	80460 <transmit+0x1d0>
   80458:	01000804 	movi	r4,32
   8045c:	00830c40 	call	830c4 <putchar>
   80460:	d0a00017 	ldw	r2,-32768(gp)
   80464:	10800204 	addi	r2,r2,8
   80468:	10c00017 	ldw	r3,0(r2)
   8046c:	00802034 	movhi	r2,128
   80470:	10808804 	addi	r2,r2,544
   80474:	18bff81e 	bne	r3,r2,80458 <rx_descriptor_end+0xfff803f8>

	//Enable read and write transfers, gigabit Ethernet operation and promiscuous mode

	*(tse + 0x02) = *(tse + 0x02) | 0x0000023B;
   80478:	d0a00017 	ldw	r2,-32768(gp)
   8047c:	10800204 	addi	r2,r2,8
   80480:	d0e00017 	ldw	r3,-32768(gp)
   80484:	18c00204 	addi	r3,r3,8
   80488:	18c00017 	ldw	r3,0(r3)
   8048c:	18c08ed4 	ori	r3,r3,571
   80490:	10c00015 	stw	r3,0(r2)
	while ( *(tse + 0x02) != ( *(tse + 0x02) | 0x0000023B ) );
   80494:	0001883a 	nop
   80498:	d0a00017 	ldw	r2,-32768(gp)
   8049c:	10800204 	addi	r2,r2,8
   804a0:	10c00017 	ldw	r3,0(r2)
   804a4:	d0a00017 	ldw	r2,-32768(gp)
   804a8:	10800204 	addi	r2,r2,8
   804ac:	10800017 	ldw	r2,0(r2)
   804b0:	10808ed4 	ori	r2,r2,571
   804b4:	18bff81e 	bne	r3,r2,80498 <rx_descriptor_end+0xfff80438>

	// Open the sgdma transmit device
	sgdma_tx_dev = alt_avalon_sgdma_open ("/dev/sgdma_tx");
   804b8:	01000274 	movhi	r4,9
   804bc:	21073304 	addi	r4,r4,7372
   804c0:	00902740 	call	90274 <alt_avalon_sgdma_open>
   804c4:	d0a7ec15 	stw	r2,-24656(gp)
	if (sgdma_tx_dev == NULL) {
   804c8:	d0a7ec17 	ldw	r2,-24656(gp)
   804cc:	1000051e 	bne	r2,zero,804e4 <transmit+0x254>
		alt_printf ("Error: could not open scatter-gather dma transmit device\n");
   804d0:	01000274 	movhi	r4,9
   804d4:	21073704 	addi	r4,r4,7388
   804d8:	008ea700 	call	8ea70 <alt_printf>
		return -1;
   804dc:	00bfffc4 	movi	r2,-1
   804e0:	00006e06 	br	8069c <transmit+0x40c>
	} else alt_printf ("Opened scatter-gather dma transmit device\n");
   804e4:	01000274 	movhi	r4,9
   804e8:	21074604 	addi	r4,r4,7448
   804ec:	008ea700 	call	8ea70 <alt_printf>

	int i = 17;
   804f0:	00800444 	movi	r2,17
   804f4:	e0bffd15 	stw	r2,-12(fp)

	memmove(tx_frame+16, pack->sourceIP, 4);
   804f8:	00800274 	movhi	r2,9
   804fc:	10890404 	addi	r2,r2,9232
   80500:	e0ffff17 	ldw	r3,-4(fp)
   80504:	01800104 	movi	r6,4
   80508:	180b883a 	mov	r5,r3
   8050c:	1009883a 	mov	r4,r2
   80510:	0082dcc0 	call	82dcc <memmove>
	memmove(tx_frame+20, pack->destIP, 4);
   80514:	00800274 	movhi	r2,9
   80518:	10890504 	addi	r2,r2,9236
   8051c:	e0ffff17 	ldw	r3,-4(fp)
   80520:	18c00104 	addi	r3,r3,4
   80524:	01800104 	movi	r6,4
   80528:	180b883a 	mov	r5,r3
   8052c:	1009883a 	mov	r4,r2
   80530:	0082dcc0 	call	82dcc <memmove>
	memmove(tx_frame+24, pack->payload->sourcePort, 2);
   80534:	00800274 	movhi	r2,9
   80538:	10890604 	addi	r2,r2,9240
   8053c:	e0ffff17 	ldw	r3,-4(fp)
   80540:	18c00217 	ldw	r3,8(r3)
   80544:	01800084 	movi	r6,2
   80548:	180b883a 	mov	r5,r3
   8054c:	1009883a 	mov	r4,r2
   80550:	0082dcc0 	call	82dcc <memmove>
	memmove(tx_frame+26, pack->payload->destPort, 2);
   80554:	00800274 	movhi	r2,9
   80558:	10890684 	addi	r2,r2,9242
   8055c:	e0ffff17 	ldw	r3,-4(fp)
   80560:	18c00217 	ldw	r3,8(r3)
   80564:	18c00084 	addi	r3,r3,2
   80568:	01800084 	movi	r6,2
   8056c:	180b883a 	mov	r5,r3
   80570:	1009883a 	mov	r4,r2
   80574:	0082dcc0 	call	82dcc <memmove>
	memmove(tx_frame+28, pack->payload->syn, 1);
   80578:	00800274 	movhi	r2,9
   8057c:	10890704 	addi	r2,r2,9244
   80580:	e0ffff17 	ldw	r3,-4(fp)
   80584:	18c00217 	ldw	r3,8(r3)
   80588:	18c00204 	addi	r3,r3,8
   8058c:	18c00003 	ldbu	r3,0(r3)
   80590:	10c00005 	stb	r3,0(r2)
	memmove(tx_frame+29, pack->payload->fin, 1);
   80594:	00800274 	movhi	r2,9
   80598:	10890744 	addi	r2,r2,9245
   8059c:	e0ffff17 	ldw	r3,-4(fp)
   805a0:	18c00217 	ldw	r3,8(r3)
   805a4:	18c00284 	addi	r3,r3,10
   805a8:	18c00003 	ldbu	r3,0(r3)
   805ac:	10c00005 	stb	r3,0(r2)
	memmove(tx_frame+30, pack->payload->seqNum, 1);
   805b0:	00800274 	movhi	r2,9
   805b4:	10890784 	addi	r2,r2,9246
   805b8:	e0ffff17 	ldw	r3,-4(fp)
   805bc:	18c00217 	ldw	r3,8(r3)
   805c0:	18c00104 	addi	r3,r3,4
   805c4:	18c00003 	ldbu	r3,0(r3)
   805c8:	10c00005 	stb	r3,0(r2)
	memmove(tx_frame+31, pack->payload->ackNum, 1);
   805cc:	00800274 	movhi	r2,9
   805d0:	108907c4 	addi	r2,r2,9247
   805d4:	e0ffff17 	ldw	r3,-4(fp)
   805d8:	18c00217 	ldw	r3,8(r3)
   805dc:	18c00184 	addi	r3,r3,6
   805e0:	18c00003 	ldbu	r3,0(r3)
   805e4:	10c00005 	stb	r3,0(r2)
	memmove(tx_frame+32, pack->payload->data, 1);
   805e8:	00800274 	movhi	r2,9
   805ec:	10890804 	addi	r2,r2,9248
   805f0:	e0ffff17 	ldw	r3,-4(fp)
   805f4:	18c00217 	ldw	r3,8(r3)
   805f8:	18c00304 	addi	r3,r3,12
   805fc:	18c00003 	ldbu	r3,0(r3)
   80600:	10c00005 	stb	r3,0(r2)
	memset(tx_frame+33, 0, 28);
   80604:	00800274 	movhi	r2,9
   80608:	10890844 	addi	r2,r2,9249
   8060c:	01800704 	movi	r6,28
   80610:	000b883a 	mov	r5,zero
   80614:	1009883a 	mov	r4,r2
   80618:	0082f280 	call	82f28 <memset>

	// Set interrupts for the sgdma transmit device
	//sgdma_tx_dev searches for sgdma_tx device, returns null if none,
	alt_avalon_sgdma_register_callback(sgdma_tx_dev, (alt_avalon_sgdma_callback) tx_ethernet_isr, 0x00000014, NULL );
   8061c:	d0a7ec17 	ldw	r2,-24656(gp)
   80620:	000f883a 	mov	r7,zero
   80624:	01800504 	movi	r6,20
   80628:	01400234 	movhi	r5,8
   8062c:	29432804 	addi	r5,r5,3232
   80630:	1009883a 	mov	r4,r2
   80634:	00901080 	call	90108 <alt_avalon_sgdma_register_callback>

	// Create sgdma transmit descriptor
	alt_avalon_sgdma_construct_mem_to_stream_desc(&tx_descriptor, &tx_descriptor_end, (alt_u32 *)tx_frame, 62, 0, 1, 1, 0);
   80638:	d8000315 	stw	zero,12(sp)
   8063c:	00800044 	movi	r2,1
   80640:	d8800215 	stw	r2,8(sp)
   80644:	00800044 	movi	r2,1
   80648:	d8800115 	stw	r2,4(sp)
   8064c:	d8000015 	stw	zero,0(sp)
   80650:	01c00f84 	movi	r7,62
   80654:	01800274 	movhi	r6,9
   80658:	31890004 	addi	r6,r6,9216
   8065c:	01400434 	movhi	r5,16
   80660:	29400804 	addi	r5,r5,32
   80664:	01000434 	movhi	r4,16
   80668:	21000004 	addi	r4,r4,0
   8066c:	008fffc0 	call	8fffc <alt_avalon_sgdma_construct_mem_to_stream_desc>

	// Set up non-blocking transfer of sgdma transmit descriptor
	alt_avalon_sgdma_do_async_transfer(sgdma_tx_dev, &tx_descriptor);
   80670:	d0a7ec17 	ldw	r2,-24656(gp)
   80674:	01400434 	movhi	r5,16
   80678:	29400004 	addi	r5,r5,0
   8067c:	1009883a 	mov	r4,r2
   80680:	008fbf80 	call	8fbf8 <alt_avalon_sgdma_do_async_transfer>

	while (alt_avalon_sgdma_check_descriptor_status(&tx_descriptor) != 0);
   80684:	0001883a 	nop
   80688:	01000434 	movhi	r4,16
   8068c:	21000004 	addi	r4,r4,0
   80690:	00902100 	call	90210 <alt_avalon_sgdma_check_descriptor_status>
   80694:	103ffc1e 	bne	r2,zero,80688 <rx_descriptor_end+0xfff80628>

	return transmissionStatus;
   80698:	d0a7eb17 	ldw	r2,-24660(gp)
}
   8069c:	e037883a 	mov	sp,fp
   806a0:	dfc00117 	ldw	ra,4(sp)
   806a4:	df000017 	ldw	fp,0(sp)
   806a8:	dec00204 	addi	sp,sp,8
   806ac:	f800283a 	ret

000806b0 <receive>:


char * receive(int device){
   806b0:	defffc04 	addi	sp,sp,-16
   806b4:	dfc00315 	stw	ra,12(sp)
   806b8:	df000215 	stw	fp,8(sp)
   806bc:	df000204 	addi	fp,sp,8
   806c0:	e13fff15 	stw	r4,-4(fp)

	// Open the sgdma receive device
	sgdma_rx_dev = alt_avalon_sgdma_open ("/dev/sgdma_rx");
   806c4:	01000274 	movhi	r4,9
   806c8:	21075104 	addi	r4,r4,7492
   806cc:	00902740 	call	90274 <alt_avalon_sgdma_open>
   806d0:	d0a7ed15 	stw	r2,-24652(gp)
	if (sgdma_rx_dev == NULL) {
   806d4:	d0a7ed17 	ldw	r2,-24652(gp)
   806d8:	1000041e 	bne	r2,zero,806ec <receive+0x3c>
		alt_printf ("Error: could not open scatter-gather dma receive device\n");
   806dc:	01000274 	movhi	r4,9
   806e0:	21075504 	addi	r4,r4,7508
   806e4:	008ea700 	call	8ea70 <alt_printf>
   806e8:	00000306 	br	806f8 <receive+0x48>
		//return -1;
	} else alt_printf ("Opened scatter-gather dma receive device\n");
   806ec:	01000274 	movhi	r4,9
   806f0:	21076404 	addi	r4,r4,7568
   806f4:	008ea700 	call	8ea70 <alt_printf>

	// Set interrupts for the sgdma receive device
	alt_avalon_sgdma_register_callback(sgdma_rx_dev, (alt_avalon_sgdma_callback) rx_ethernet_isr, 0x00000014, NULL );
   806f8:	d0a7ed17 	ldw	r2,-24652(gp)
   806fc:	000f883a 	mov	r7,zero
   80700:	01800504 	movi	r6,20
   80704:	01400234 	movhi	r5,8
   80708:	29427204 	addi	r5,r5,2504
   8070c:	1009883a 	mov	r4,r2
   80710:	00901080 	call	90108 <alt_avalon_sgdma_register_callback>

	// Create sgdma receive descriptor
	alt_avalon_sgdma_construct_stream_to_mem_desc(&rx_descriptor, &rx_descriptor_end, (alt_u32 *)rx_frame, 0, 0 );
   80714:	d8000015 	stw	zero,0(sp)
   80718:	000f883a 	mov	r7,zero
   8071c:	01800274 	movhi	r6,9
   80720:	3198c804 	addi	r6,r6,25376
   80724:	01400434 	movhi	r5,16
   80728:	29401804 	addi	r5,r5,96
   8072c:	01000434 	movhi	r4,16
   80730:	21001004 	addi	r4,r4,64
   80734:	008ff240 	call	8ff24 <alt_avalon_sgdma_construct_stream_to_mem_desc>

	// Set up non-blocking transfer of sgdma receive descriptor
	alt_avalon_sgdma_do_async_transfer(sgdma_rx_dev, &rx_descriptor );
   80738:	d0a7ed17 	ldw	r2,-24652(gp)
   8073c:	01400434 	movhi	r5,16
   80740:	29401004 	addi	r5,r5,64
   80744:	1009883a 	mov	r4,r2
   80748:	008fbf80 	call	8fbf8 <alt_avalon_sgdma_do_async_transfer>

	//Specify the addresses of the PHY devices to be accessed through MDIO interface

	if(!device){
   8074c:	e0bfff17 	ldw	r2,-4(fp)
   80750:	1000051e 	bne	r2,zero,80768 <receive+0xb8>
		*(tse + 0x0F) = 0x10;
   80754:	d0a00017 	ldw	r2,-32768(gp)
   80758:	10800f04 	addi	r2,r2,60
   8075c:	00c00404 	movi	r3,16
   80760:	10c00015 	stw	r3,0(r2)
   80764:	00000406 	br	80778 <receive+0xc8>
	}
	else {
		*(tse + 0x0F) = 0x11;
   80768:	d0a00017 	ldw	r2,-32768(gp)
   8076c:	10800f04 	addi	r2,r2,60
   80770:	00c00444 	movi	r3,17
   80774:	10c00015 	stw	r3,0(r2)
	}

	// Disable read and write transfers and wait
	*(tse + 0x02) = *(tse + 0x02) | 0x00800220;
   80778:	d0a00017 	ldw	r2,-32768(gp)
   8077c:	10c00204 	addi	r3,r2,8
   80780:	d0a00017 	ldw	r2,-32768(gp)
   80784:	10800204 	addi	r2,r2,8
   80788:	11000017 	ldw	r4,0(r2)
   8078c:	00802034 	movhi	r2,128
   80790:	10808804 	addi	r2,r2,544
   80794:	2084b03a 	or	r2,r4,r2
   80798:	18800015 	stw	r2,0(r3)
	while ( *(tse + 0x02) != ( *(tse +0x02 ) | 0x00800220));
   8079c:	0001883a 	nop
   807a0:	d0a00017 	ldw	r2,-32768(gp)
   807a4:	10800204 	addi	r2,r2,8
   807a8:	10c00017 	ldw	r3,0(r2)
   807ac:	d0a00017 	ldw	r2,-32768(gp)
   807b0:	10800204 	addi	r2,r2,8
   807b4:	11000017 	ldw	r4,0(r2)
   807b8:	00802034 	movhi	r2,128
   807bc:	10808804 	addi	r2,r2,544
   807c0:	2084b03a 	or	r2,r4,r2
   807c4:	18bff61e 	bne	r3,r2,807a0 <rx_descriptor_end+0xfff80740>

	//MAC FIFO Configuration
	*(tse + 0x09) = TSE_TRANSMIT_FIFO_DEPTH-16;	//tx_section_empty
   807c8:	d0a00017 	ldw	r2,-32768(gp)
   807cc:	10800904 	addi	r2,r2,36
   807d0:	00c1fc04 	movi	r3,2032
   807d4:	10c00015 	stw	r3,0(r2)
	*(tse + 0x0E ) = 0x03;						//tx_almost_full
   807d8:	d0a00017 	ldw	r2,-32768(gp)
   807dc:	10800e04 	addi	r2,r2,56
   807e0:	00c000c4 	movi	r3,3
   807e4:	10c00015 	stw	r3,0(r2)
	*(tse + 0x0D ) = 0x08;						//tx_almost_empty
   807e8:	d0a00017 	ldw	r2,-32768(gp)
   807ec:	10800d04 	addi	r2,r2,52
   807f0:	00c00204 	movi	r3,8
   807f4:	10c00015 	stw	r3,0(r2)
	*(tse + 0x07 ) = TSE_RECEIVE_FIFO_DEPTH-16;	//rx_section_empty
   807f8:	d0a00017 	ldw	r2,-32768(gp)
   807fc:	10800704 	addi	r2,r2,28
   80800:	00c1fc04 	movi	r3,2032
   80804:	10c00015 	stw	r3,0(r2)
	*(tse + 0x0C ) = 0x08;						//rx_almost_full
   80808:	d0a00017 	ldw	r2,-32768(gp)
   8080c:	10800c04 	addi	r2,r2,48
   80810:	00c00204 	movi	r3,8
   80814:	10c00015 	stw	r3,0(r2)
	*(tse + 0x0B ) = 0x08;						//rx_almost_empty
   80818:	d0a00017 	ldw	r2,-32768(gp)
   8081c:	10800b04 	addi	r2,r2,44
   80820:	00c00204 	movi	r3,8
   80824:	10c00015 	stw	r3,0(r2)
	*(tse + 0x0A ) = 0x00;						//tx_section_full
   80828:	d0a00017 	ldw	r2,-32768(gp)
   8082c:	10800a04 	addi	r2,r2,40
   80830:	10000015 	stw	zero,0(r2)
	*(tse + 0x08 ) = 0x00;						//rx_section_full
   80834:	d0a00017 	ldw	r2,-32768(gp)
   80838:	10800804 	addi	r2,r2,32
   8083c:	10000015 	stw	zero,0(r2)

	// Initialize the MAC address
	if(!device){
   80840:	e0bfff17 	ldw	r2,-4(fp)
   80844:	10000a1e 	bne	r2,zero,80870 <receive+0x1c0>
		*(tse + 0x03) = 0x17231C00;
   80848:	d0a00017 	ldw	r2,-32768(gp)
   8084c:	10c00304 	addi	r3,r2,12
   80850:	0085c8f4 	movhi	r2,5923
   80854:	10870004 	addi	r2,r2,7168
   80858:	18800015 	stw	r2,0(r3)
		*(tse + 0x04) = 0x0000CB4A;
   8085c:	d0a00017 	ldw	r2,-32768(gp)
   80860:	10800404 	addi	r2,r2,16
   80864:	00f2d294 	movui	r3,52042
   80868:	10c00015 	stw	r3,0(r2)
   8086c:	00000906 	br	80894 <receive+0x1e4>
	}
	else {
		//MAC2: C8-16-0B-93-67-DA
		*(tse + 0x03) = 0x930B16C8;
   80870:	d0a00017 	ldw	r2,-32768(gp)
   80874:	10c00304 	addi	r3,r2,12
   80878:	00a4c2f4 	movhi	r2,37643
   8087c:	1085b204 	addi	r2,r2,5832
   80880:	18800015 	stw	r2,0(r3)
		*(tse + 0x04) = 0x0000DA67;
   80884:	d0a00017 	ldw	r2,-32768(gp)
   80888:	10800404 	addi	r2,r2,16
   8088c:	00f699d4 	movui	r3,55911
   80890:	10c00015 	stw	r3,0(r2)
	}
	// MAC function configuration
	*(tse + 0x05) = 1518;//frame length
   80894:	d0a00017 	ldw	r2,-32768(gp)
   80898:	10800504 	addi	r2,r2,20
   8089c:	00c17b84 	movi	r3,1518
   808a0:	10c00015 	stw	r3,0(r2)
	*(tse + 0x17) = 12;//tx_ipg_length
   808a4:	d0a00017 	ldw	r2,-32768(gp)
   808a8:	10801704 	addi	r2,r2,92
   808ac:	00c00304 	movi	r3,12
   808b0:	10c00015 	stw	r3,0(r2)
	*(tse + 0x06) = 0xFFFF;//pause_quanta
   808b4:	d0a00017 	ldw	r2,-32768(gp)
   808b8:	10800604 	addi	r2,r2,24
   808bc:	00ffffd4 	movui	r3,65535
   808c0:	10c00015 	stw	r3,0(r2)
	*(tse + 0x02) = 0x00800220;//config register
   808c4:	d0a00017 	ldw	r2,-32768(gp)
   808c8:	10c00204 	addi	r3,r2,8
   808cc:	00802034 	movhi	r2,128
   808d0:	10808804 	addi	r2,r2,544
   808d4:	18800015 	stw	r2,0(r3)


	// Software reset the PHY chip and wait
	*(tse + 0x02) =  0x00802220;
   808d8:	d0a00017 	ldw	r2,-32768(gp)
   808dc:	10c00204 	addi	r3,r2,8
   808e0:	00802034 	movhi	r2,128
   808e4:	10888804 	addi	r2,r2,8736
   808e8:	18800015 	stw	r2,0(r3)
	alt_printf("Setting the reset rx");
   808ec:	01000274 	movhi	r4,9
   808f0:	21076f04 	addi	r4,r4,7612
   808f4:	008ea700 	call	8ea70 <alt_printf>
	while ( *(tse + 0x02) != ( 0x00800220 )) printf(" ") ;
   808f8:	00000206 	br	80904 <receive+0x254>
   808fc:	01000804 	movi	r4,32
   80900:	00830c40 	call	830c4 <putchar>
   80904:	d0a00017 	ldw	r2,-32768(gp)
   80908:	10800204 	addi	r2,r2,8
   8090c:	10c00017 	ldw	r3,0(r2)
   80910:	00802034 	movhi	r2,128
   80914:	10808804 	addi	r2,r2,544
   80918:	18bff81e 	bne	r3,r2,808fc <rx_descriptor_end+0xfff8089c>

	// Enable read and write transfers, gigabit Ethernet operation and promiscuous mode

	*(tse + 0x02) = *(tse + 0x02) | 0x0080023B;//3rd bit changed to 0/8
   8091c:	d0a00017 	ldw	r2,-32768(gp)
   80920:	10c00204 	addi	r3,r2,8
   80924:	d0a00017 	ldw	r2,-32768(gp)
   80928:	10800204 	addi	r2,r2,8
   8092c:	11000017 	ldw	r4,0(r2)
   80930:	00802034 	movhi	r2,128
   80934:	10808ec4 	addi	r2,r2,571
   80938:	2084b03a 	or	r2,r4,r2
   8093c:	18800015 	stw	r2,0(r3)
	printf( "OR while loop\n");
   80940:	01000274 	movhi	r4,9
   80944:	21077504 	addi	r4,r4,7636
   80948:	008319c0 	call	8319c <puts>
	while ( *(tse + 0x02) != ( *(tse + 0x02) | 0x0080023B ) );
   8094c:	0001883a 	nop
   80950:	d0a00017 	ldw	r2,-32768(gp)
   80954:	10800204 	addi	r2,r2,8
   80958:	10c00017 	ldw	r3,0(r2)
   8095c:	d0a00017 	ldw	r2,-32768(gp)
   80960:	10800204 	addi	r2,r2,8
   80964:	11000017 	ldw	r4,0(r2)
   80968:	00802034 	movhi	r2,128
   8096c:	10808ec4 	addi	r2,r2,571
   80970:	2084b03a 	or	r2,r4,r2
   80974:	18bff61e 	bne	r3,r2,80950 <rx_descriptor_end+0xfff808f0>
	printf (" FINISH OR while loop \n");
   80978:	01000274 	movhi	r4,9
   8097c:	21077904 	addi	r4,r4,7652
   80980:	008319c0 	call	8319c <puts>

	while (1) {
		in=IORD_ALTERA_AVALON_PIO_DATA(SWITCH_BASE); //read the input from the switch
   80984:	00800434 	movhi	r2,16
   80988:	10892804 	addi	r2,r2,9376
   8098c:	10800037 	ldwio	r2,0(r2)
   80990:	d0a7ea15 	stw	r2,-24664(gp)
		if (in == 1){
   80994:	d0a7ea17 	ldw	r2,-24664(gp)
   80998:	10800058 	cmpnei	r2,r2,1
   8099c:	1000051e 	bne	r2,zero,809b4 <receive+0x304>
			IOWR_ALTERA_AVALON_PIO_DATA(LED_BASE, 0x01);//turn on or turn off the LED
   809a0:	00c00044 	movi	r3,1
   809a4:	00800434 	movhi	r2,16
   809a8:	10892c04 	addi	r2,r2,9392
   809ac:	10c00035 	stwio	r3,0(r2)
   809b0:	003ff406 	br	80984 <rx_descriptor_end+0xfff80924>
		}
		else{
			IOWR_ALTERA_AVALON_PIO_DATA(LED_BASE, 0x00);
   809b4:	0007883a 	mov	r3,zero
   809b8:	00800434 	movhi	r2,16
   809bc:	10892c04 	addi	r2,r2,9392
   809c0:	10c00035 	stwio	r3,0(r2)
		}
	}
   809c4:	003fef06 	br	80984 <rx_descriptor_end+0xfff80924>

000809c8 <rx_ethernet_isr>:

/****************************************************************************************
 * Subroutine to read incoming Ethernet frames
 ****************************************************************************************/
void rx_ethernet_isr (void *context)
{
   809c8:	defffa04 	addi	sp,sp,-24
   809cc:	dfc00515 	stw	ra,20(sp)
   809d0:	df000415 	stw	fp,16(sp)
   809d4:	df000404 	addi	fp,sp,16
   809d8:	e13fff15 	stw	r4,-4(fp)

	//Include your code to show the values of the source and destination addresses of the received frame. For example:
	if(in == 1){ // check if the switch is on
   809dc:	d0a7ea17 	ldw	r2,-24664(gp)
   809e0:	10800060 	cmpeqi	r2,r2,1
   809e4:	1000a01e 	bne	r2,zero,80c68 <rx_ethernet_isr+0x2a0>
		//alt_printf( "Destination address: %x,%x,%x,%x%x,%x \n", rx_frame[2], rx_frame[3], rx_frame[4], rx_frame[5],rx_frame[6], rx_frame[7] );
		//alt_printf( "Source address: %x,%x,%x,%x,%x,%x \n", rx_frame[8], rx_frame[9], rx_frame[10], rx_frame[11],rx_frame[12], rx_frame[13] );
	}
	else {
		alt_dcache_flush_all();
   809e8:	008e5700 	call	8e570 <alt_dcache_flush_all>
		printf( "Destination address: %x.%x.%x.%x.%x.%x\n", rx_frame[2], rx_frame[3], rx_frame[4], rx_frame[5],rx_frame[6], rx_frame[7] );
   809ec:	00800274 	movhi	r2,9
   809f0:	1098c804 	addi	r2,r2,25376
   809f4:	10800083 	ldbu	r2,2(r2)
   809f8:	11403fcc 	andi	r5,r2,255
   809fc:	00800274 	movhi	r2,9
   80a00:	1098c804 	addi	r2,r2,25376
   80a04:	108000c3 	ldbu	r2,3(r2)
   80a08:	11803fcc 	andi	r6,r2,255
   80a0c:	00800274 	movhi	r2,9
   80a10:	1098c804 	addi	r2,r2,25376
   80a14:	10800103 	ldbu	r2,4(r2)
   80a18:	11c03fcc 	andi	r7,r2,255
   80a1c:	00800274 	movhi	r2,9
   80a20:	1098c804 	addi	r2,r2,25376
   80a24:	10800143 	ldbu	r2,5(r2)
   80a28:	10c03fcc 	andi	r3,r2,255
   80a2c:	00800274 	movhi	r2,9
   80a30:	1098c804 	addi	r2,r2,25376
   80a34:	10800183 	ldbu	r2,6(r2)
   80a38:	11003fcc 	andi	r4,r2,255
   80a3c:	00800274 	movhi	r2,9
   80a40:	1098c804 	addi	r2,r2,25376
   80a44:	108001c3 	ldbu	r2,7(r2)
   80a48:	10803fcc 	andi	r2,r2,255
   80a4c:	d8800215 	stw	r2,8(sp)
   80a50:	d9000115 	stw	r4,4(sp)
   80a54:	d8c00015 	stw	r3,0(sp)
   80a58:	01000274 	movhi	r4,9
   80a5c:	21077f04 	addi	r4,r4,7676
   80a60:	00830800 	call	83080 <printf>
		printf( "Source address: %x.%x.%x.%x.%x.%x\n", rx_frame[8], rx_frame[9], rx_frame[10], rx_frame[11],rx_frame[12], rx_frame[13] );
   80a64:	00800274 	movhi	r2,9
   80a68:	1098c804 	addi	r2,r2,25376
   80a6c:	10800203 	ldbu	r2,8(r2)
   80a70:	11403fcc 	andi	r5,r2,255
   80a74:	00800274 	movhi	r2,9
   80a78:	1098c804 	addi	r2,r2,25376
   80a7c:	10800243 	ldbu	r2,9(r2)
   80a80:	11803fcc 	andi	r6,r2,255
   80a84:	00800274 	movhi	r2,9
   80a88:	1098c804 	addi	r2,r2,25376
   80a8c:	10800283 	ldbu	r2,10(r2)
   80a90:	11c03fcc 	andi	r7,r2,255
   80a94:	00800274 	movhi	r2,9
   80a98:	1098c804 	addi	r2,r2,25376
   80a9c:	108002c3 	ldbu	r2,11(r2)
   80aa0:	10c03fcc 	andi	r3,r2,255
   80aa4:	00800274 	movhi	r2,9
   80aa8:	1098c804 	addi	r2,r2,25376
   80aac:	10800303 	ldbu	r2,12(r2)
   80ab0:	11003fcc 	andi	r4,r2,255
   80ab4:	00800274 	movhi	r2,9
   80ab8:	1098c804 	addi	r2,r2,25376
   80abc:	10800343 	ldbu	r2,13(r2)
   80ac0:	10803fcc 	andi	r2,r2,255
   80ac4:	d8800215 	stw	r2,8(sp)
   80ac8:	d9000115 	stw	r4,4(sp)
   80acc:	d8c00015 	stw	r3,0(sp)
   80ad0:	01000274 	movhi	r4,9
   80ad4:	21078904 	addi	r4,r4,7716
   80ad8:	00830800 	call	83080 <printf>
		printf( "Length: %d%d\nSource IP: %d.%d.%d.%d\n", rx_frame[14], rx_frame[15], rx_frame[16], rx_frame[17],rx_frame[18], rx_frame[19] );
   80adc:	00800274 	movhi	r2,9
   80ae0:	1098c804 	addi	r2,r2,25376
   80ae4:	10800383 	ldbu	r2,14(r2)
   80ae8:	11403fcc 	andi	r5,r2,255
   80aec:	00800274 	movhi	r2,9
   80af0:	1098c804 	addi	r2,r2,25376
   80af4:	108003c3 	ldbu	r2,15(r2)
   80af8:	11803fcc 	andi	r6,r2,255
   80afc:	00800274 	movhi	r2,9
   80b00:	1098c804 	addi	r2,r2,25376
   80b04:	10800403 	ldbu	r2,16(r2)
   80b08:	11c03fcc 	andi	r7,r2,255
   80b0c:	00800274 	movhi	r2,9
   80b10:	1098c804 	addi	r2,r2,25376
   80b14:	10800443 	ldbu	r2,17(r2)
   80b18:	10c03fcc 	andi	r3,r2,255
   80b1c:	00800274 	movhi	r2,9
   80b20:	1098c804 	addi	r2,r2,25376
   80b24:	10800483 	ldbu	r2,18(r2)
   80b28:	11003fcc 	andi	r4,r2,255
   80b2c:	00800274 	movhi	r2,9
   80b30:	1098c804 	addi	r2,r2,25376
   80b34:	108004c3 	ldbu	r2,19(r2)
   80b38:	10803fcc 	andi	r2,r2,255
   80b3c:	d8800215 	stw	r2,8(sp)
   80b40:	d9000115 	stw	r4,4(sp)
   80b44:	d8c00015 	stw	r3,0(sp)
   80b48:	01000274 	movhi	r4,9
   80b4c:	21079204 	addi	r4,r4,7752
   80b50:	00830800 	call	83080 <printf>
		printf( "Destination IP: %d.%d.%d.%d\nSource Port: %d%d\n", rx_frame[20], rx_frame[21], rx_frame[22], rx_frame[23],rx_frame[24], rx_frame[25] );
   80b54:	00800274 	movhi	r2,9
   80b58:	1098c804 	addi	r2,r2,25376
   80b5c:	10800503 	ldbu	r2,20(r2)
   80b60:	11403fcc 	andi	r5,r2,255
   80b64:	00800274 	movhi	r2,9
   80b68:	1098c804 	addi	r2,r2,25376
   80b6c:	10800543 	ldbu	r2,21(r2)
   80b70:	11803fcc 	andi	r6,r2,255
   80b74:	00800274 	movhi	r2,9
   80b78:	1098c804 	addi	r2,r2,25376
   80b7c:	10800583 	ldbu	r2,22(r2)
   80b80:	11c03fcc 	andi	r7,r2,255
   80b84:	00800274 	movhi	r2,9
   80b88:	1098c804 	addi	r2,r2,25376
   80b8c:	108005c3 	ldbu	r2,23(r2)
   80b90:	10c03fcc 	andi	r3,r2,255
   80b94:	00800274 	movhi	r2,9
   80b98:	1098c804 	addi	r2,r2,25376
   80b9c:	10800603 	ldbu	r2,24(r2)
   80ba0:	11003fcc 	andi	r4,r2,255
   80ba4:	00800274 	movhi	r2,9
   80ba8:	1098c804 	addi	r2,r2,25376
   80bac:	10800643 	ldbu	r2,25(r2)
   80bb0:	10803fcc 	andi	r2,r2,255
   80bb4:	d8800215 	stw	r2,8(sp)
   80bb8:	d9000115 	stw	r4,4(sp)
   80bbc:	d8c00015 	stw	r3,0(sp)
   80bc0:	01000274 	movhi	r4,9
   80bc4:	21079c04 	addi	r4,r4,7792
   80bc8:	00830800 	call	83080 <printf>
		printf( "Destination Port: %d%d\nSYN: %x\nFIN: %x\nSequence Number: %x\nAck Number: %x\n", rx_frame[26], rx_frame[27], rx_frame[28], rx_frame[29],rx_frame[30], rx_frame[31] );
   80bcc:	00800274 	movhi	r2,9
   80bd0:	1098c804 	addi	r2,r2,25376
   80bd4:	10800683 	ldbu	r2,26(r2)
   80bd8:	11403fcc 	andi	r5,r2,255
   80bdc:	00800274 	movhi	r2,9
   80be0:	1098c804 	addi	r2,r2,25376
   80be4:	108006c3 	ldbu	r2,27(r2)
   80be8:	11803fcc 	andi	r6,r2,255
   80bec:	00800274 	movhi	r2,9
   80bf0:	1098c804 	addi	r2,r2,25376
   80bf4:	10800703 	ldbu	r2,28(r2)
   80bf8:	11c03fcc 	andi	r7,r2,255
   80bfc:	00800274 	movhi	r2,9
   80c00:	1098c804 	addi	r2,r2,25376
   80c04:	10800743 	ldbu	r2,29(r2)
   80c08:	10c03fcc 	andi	r3,r2,255
   80c0c:	00800274 	movhi	r2,9
   80c10:	1098c804 	addi	r2,r2,25376
   80c14:	10800783 	ldbu	r2,30(r2)
   80c18:	11003fcc 	andi	r4,r2,255
   80c1c:	00800274 	movhi	r2,9
   80c20:	1098c804 	addi	r2,r2,25376
   80c24:	108007c3 	ldbu	r2,31(r2)
   80c28:	10803fcc 	andi	r2,r2,255
   80c2c:	d8800215 	stw	r2,8(sp)
   80c30:	d9000115 	stw	r4,4(sp)
   80c34:	d8c00015 	stw	r3,0(sp)
   80c38:	01000274 	movhi	r4,9
   80c3c:	2107a804 	addi	r4,r4,7840
   80c40:	00830800 	call	83080 <printf>
		printf( "Data: %x\n", rx_frame[32]);
   80c44:	00800274 	movhi	r2,9
   80c48:	1098c804 	addi	r2,r2,25376
   80c4c:	10800803 	ldbu	r2,32(r2)
   80c50:	10803fcc 	andi	r2,r2,255
   80c54:	100b883a 	mov	r5,r2
   80c58:	01000274 	movhi	r4,9
   80c5c:	2107bb04 	addi	r4,r4,7916
   80c60:	00830800 	call	83080 <printf>
		alt_dcache_flush_all();
   80c64:	008e5700 	call	8e570 <alt_dcache_flush_all>
		//alt_printf( "MAC ADDRESS 0: %x \n", *(tse + 0x18) );
		//alt_printf( "Successful frames: %x \n", *(tse + 0x1A) );
		//alt_printf( "Broadcast frames: %x \n", *(tse + 0x26) );
	}
	// Wait until receive descriptor transfer is complete
	while (alt_avalon_sgdma_check_descriptor_status(&rx_descriptor) != 0)
   80c68:	0001883a 	nop
   80c6c:	01000434 	movhi	r4,16
   80c70:	21001004 	addi	r4,r4,64
   80c74:	00902100 	call	90210 <alt_avalon_sgdma_check_descriptor_status>
   80c78:	103ffc1e 	bne	r2,zero,80c6c <rx_descriptor_end+0xfff80c0c>
		;

	count++;
   80c7c:	d0a7e917 	ldw	r2,-24668(gp)
   80c80:	10800044 	addi	r2,r2,1
   80c84:	d0a7e915 	stw	r2,-24668(gp)
	// Create new receive sgdma descriptor
	//alt_avalon_sgdma_construct_stream_to_mem_desc(&rx_descriptor, &rx_descriptor_end, (alt_u32 *)rx_frame, 0, 0 );

	// Set up non-blocking transfer of sgdma receive descriptor
	//alt_avalon_sgdma_do_async_transfer(sgdma_rx_dev, &rx_descriptor);
}
   80c88:	0001883a 	nop
   80c8c:	e037883a 	mov	sp,fp
   80c90:	dfc00117 	ldw	ra,4(sp)
   80c94:	df000017 	ldw	fp,0(sp)
   80c98:	dec00204 	addi	sp,sp,8
   80c9c:	f800283a 	ret

00080ca0 <tx_ethernet_isr>:

void tx_ethernet_isr (void *context){
   80ca0:	defffa04 	addi	sp,sp,-24
   80ca4:	dfc00515 	stw	ra,20(sp)
   80ca8:	df000415 	stw	fp,16(sp)
   80cac:	df000404 	addi	fp,sp,16
   80cb0:	e13fff15 	stw	r4,-4(fp)

	transmissionStatus = 1;
   80cb4:	00800044 	movi	r2,1
   80cb8:	d0a7eb15 	stw	r2,-24660(gp)
	printf("Destination address: %x.%x.%x.%x.%x.%x \n", tx_frame[2], tx_frame[3], tx_frame[4], tx_frame[5],tx_frame[6], tx_frame[7] );
   80cbc:	00800274 	movhi	r2,9
   80cc0:	10890004 	addi	r2,r2,9216
   80cc4:	10800083 	ldbu	r2,2(r2)
   80cc8:	11403fcc 	andi	r5,r2,255
   80ccc:	00800274 	movhi	r2,9
   80cd0:	10890004 	addi	r2,r2,9216
   80cd4:	108000c3 	ldbu	r2,3(r2)
   80cd8:	11803fcc 	andi	r6,r2,255
   80cdc:	00800274 	movhi	r2,9
   80ce0:	10890004 	addi	r2,r2,9216
   80ce4:	10800103 	ldbu	r2,4(r2)
   80ce8:	11c03fcc 	andi	r7,r2,255
   80cec:	00800274 	movhi	r2,9
   80cf0:	10890004 	addi	r2,r2,9216
   80cf4:	10800143 	ldbu	r2,5(r2)
   80cf8:	10c03fcc 	andi	r3,r2,255
   80cfc:	00800274 	movhi	r2,9
   80d00:	10890004 	addi	r2,r2,9216
   80d04:	10800183 	ldbu	r2,6(r2)
   80d08:	11003fcc 	andi	r4,r2,255
   80d0c:	00800274 	movhi	r2,9
   80d10:	10890004 	addi	r2,r2,9216
   80d14:	108001c3 	ldbu	r2,7(r2)
   80d18:	10803fcc 	andi	r2,r2,255
   80d1c:	d8800215 	stw	r2,8(sp)
   80d20:	d9000115 	stw	r4,4(sp)
   80d24:	d8c00015 	stw	r3,0(sp)
   80d28:	01000274 	movhi	r4,9
   80d2c:	2107be04 	addi	r4,r4,7928
   80d30:	00830800 	call	83080 <printf>
	printf("Source address: %x.%x.%x.%x.%x.%x\n", tx_frame[8], tx_frame[9], tx_frame[10], tx_frame[11], tx_frame[12], tx_frame[13] );
   80d34:	00800274 	movhi	r2,9
   80d38:	10890004 	addi	r2,r2,9216
   80d3c:	10800203 	ldbu	r2,8(r2)
   80d40:	11403fcc 	andi	r5,r2,255
   80d44:	00800274 	movhi	r2,9
   80d48:	10890004 	addi	r2,r2,9216
   80d4c:	10800243 	ldbu	r2,9(r2)
   80d50:	11803fcc 	andi	r6,r2,255
   80d54:	00800274 	movhi	r2,9
   80d58:	10890004 	addi	r2,r2,9216
   80d5c:	10800283 	ldbu	r2,10(r2)
   80d60:	11c03fcc 	andi	r7,r2,255
   80d64:	00800274 	movhi	r2,9
   80d68:	10890004 	addi	r2,r2,9216
   80d6c:	108002c3 	ldbu	r2,11(r2)
   80d70:	10c03fcc 	andi	r3,r2,255
   80d74:	00800274 	movhi	r2,9
   80d78:	10890004 	addi	r2,r2,9216
   80d7c:	10800303 	ldbu	r2,12(r2)
   80d80:	11003fcc 	andi	r4,r2,255
   80d84:	00800274 	movhi	r2,9
   80d88:	10890004 	addi	r2,r2,9216
   80d8c:	10800343 	ldbu	r2,13(r2)
   80d90:	10803fcc 	andi	r2,r2,255
   80d94:	d8800215 	stw	r2,8(sp)
   80d98:	d9000115 	stw	r4,4(sp)
   80d9c:	d8c00015 	stw	r3,0(sp)
   80da0:	01000274 	movhi	r4,9
   80da4:	21078904 	addi	r4,r4,7716
   80da8:	00830800 	call	83080 <printf>
	printf("Source IP: %d.%d.%d.%d\n", tx_frame[16], tx_frame[17], tx_frame[18], tx_frame[19]);
   80dac:	00800274 	movhi	r2,9
   80db0:	10890004 	addi	r2,r2,9216
   80db4:	10800403 	ldbu	r2,16(r2)
   80db8:	10c03fcc 	andi	r3,r2,255
   80dbc:	00800274 	movhi	r2,9
   80dc0:	10890004 	addi	r2,r2,9216
   80dc4:	10800443 	ldbu	r2,17(r2)
   80dc8:	11003fcc 	andi	r4,r2,255
   80dcc:	00800274 	movhi	r2,9
   80dd0:	10890004 	addi	r2,r2,9216
   80dd4:	10800483 	ldbu	r2,18(r2)
   80dd8:	11403fcc 	andi	r5,r2,255
   80ddc:	00800274 	movhi	r2,9
   80de0:	10890004 	addi	r2,r2,9216
   80de4:	108004c3 	ldbu	r2,19(r2)
   80de8:	10803fcc 	andi	r2,r2,255
   80dec:	d8800015 	stw	r2,0(sp)
   80df0:	280f883a 	mov	r7,r5
   80df4:	200d883a 	mov	r6,r4
   80df8:	180b883a 	mov	r5,r3
   80dfc:	01000274 	movhi	r4,9
   80e00:	2107c904 	addi	r4,r4,7972
   80e04:	00830800 	call	83080 <printf>
	printf("Destination IP: %d.%d.%d.%d\n", tx_frame[20], tx_frame[21], tx_frame[22], tx_frame[23]);
   80e08:	00800274 	movhi	r2,9
   80e0c:	10890004 	addi	r2,r2,9216
   80e10:	10800503 	ldbu	r2,20(r2)
   80e14:	10c03fcc 	andi	r3,r2,255
   80e18:	00800274 	movhi	r2,9
   80e1c:	10890004 	addi	r2,r2,9216
   80e20:	10800543 	ldbu	r2,21(r2)
   80e24:	11003fcc 	andi	r4,r2,255
   80e28:	00800274 	movhi	r2,9
   80e2c:	10890004 	addi	r2,r2,9216
   80e30:	10800583 	ldbu	r2,22(r2)
   80e34:	11403fcc 	andi	r5,r2,255
   80e38:	00800274 	movhi	r2,9
   80e3c:	10890004 	addi	r2,r2,9216
   80e40:	108005c3 	ldbu	r2,23(r2)
   80e44:	10803fcc 	andi	r2,r2,255
   80e48:	d8800015 	stw	r2,0(sp)
   80e4c:	280f883a 	mov	r7,r5
   80e50:	200d883a 	mov	r6,r4
   80e54:	180b883a 	mov	r5,r3
   80e58:	01000274 	movhi	r4,9
   80e5c:	2107cf04 	addi	r4,r4,7996
   80e60:	00830800 	call	83080 <printf>
	printf("Source Port: %d%d%\n Destination Port: %d%d%\n ", tx_frame[24], tx_frame[25], tx_frame[26], tx_frame[27]);
   80e64:	00800274 	movhi	r2,9
   80e68:	10890004 	addi	r2,r2,9216
   80e6c:	10800603 	ldbu	r2,24(r2)
   80e70:	10c03fcc 	andi	r3,r2,255
   80e74:	00800274 	movhi	r2,9
   80e78:	10890004 	addi	r2,r2,9216
   80e7c:	10800643 	ldbu	r2,25(r2)
   80e80:	11003fcc 	andi	r4,r2,255
   80e84:	00800274 	movhi	r2,9
   80e88:	10890004 	addi	r2,r2,9216
   80e8c:	10800683 	ldbu	r2,26(r2)
   80e90:	11403fcc 	andi	r5,r2,255
   80e94:	00800274 	movhi	r2,9
   80e98:	10890004 	addi	r2,r2,9216
   80e9c:	108006c3 	ldbu	r2,27(r2)
   80ea0:	10803fcc 	andi	r2,r2,255
   80ea4:	d8800015 	stw	r2,0(sp)
   80ea8:	280f883a 	mov	r7,r5
   80eac:	200d883a 	mov	r6,r4
   80eb0:	180b883a 	mov	r5,r3
   80eb4:	01000274 	movhi	r4,9
   80eb8:	2107d704 	addi	r4,r4,8028
   80ebc:	00830800 	call	83080 <printf>
	printf("SYN: %x FIN: %x%\n Seq: %x Ack: %x%\n ", tx_frame[28], tx_frame[29], tx_frame[30], tx_frame[31]);
   80ec0:	00800274 	movhi	r2,9
   80ec4:	10890004 	addi	r2,r2,9216
   80ec8:	10800703 	ldbu	r2,28(r2)
   80ecc:	10c03fcc 	andi	r3,r2,255
   80ed0:	00800274 	movhi	r2,9
   80ed4:	10890004 	addi	r2,r2,9216
   80ed8:	10800743 	ldbu	r2,29(r2)
   80edc:	11003fcc 	andi	r4,r2,255
   80ee0:	00800274 	movhi	r2,9
   80ee4:	10890004 	addi	r2,r2,9216
   80ee8:	10800783 	ldbu	r2,30(r2)
   80eec:	11403fcc 	andi	r5,r2,255
   80ef0:	00800274 	movhi	r2,9
   80ef4:	10890004 	addi	r2,r2,9216
   80ef8:	108007c3 	ldbu	r2,31(r2)
   80efc:	10803fcc 	andi	r2,r2,255
   80f00:	d8800015 	stw	r2,0(sp)
   80f04:	280f883a 	mov	r7,r5
   80f08:	200d883a 	mov	r6,r4
   80f0c:	180b883a 	mov	r5,r3
   80f10:	01000274 	movhi	r4,9
   80f14:	2107e304 	addi	r4,r4,8076
   80f18:	00830800 	call	83080 <printf>
	printf("Data: %x%\n ", tx_frame[32]);
   80f1c:	00800274 	movhi	r2,9
   80f20:	10890004 	addi	r2,r2,9216
   80f24:	10800803 	ldbu	r2,32(r2)
   80f28:	10803fcc 	andi	r2,r2,255
   80f2c:	100b883a 	mov	r5,r2
   80f30:	01000274 	movhi	r4,9
   80f34:	2107ed04 	addi	r4,r4,8116
   80f38:	00830800 	call	83080 <printf>
	printf("Frames Transmitted: %x\n", *(tse + 0x1A) );
   80f3c:	d0a00017 	ldw	r2,-32768(gp)
   80f40:	10801a04 	addi	r2,r2,104
   80f44:	10800017 	ldw	r2,0(r2)
   80f48:	100b883a 	mov	r5,r2
   80f4c:	01000274 	movhi	r4,9
   80f50:	2107f004 	addi	r4,r4,8128
   80f54:	00830800 	call	83080 <printf>
	printf("Pause Frames Transmitted: %x \n", *(tse + 0x20));
   80f58:	d0a00017 	ldw	r2,-32768(gp)
   80f5c:	10802004 	addi	r2,r2,128
   80f60:	10800017 	ldw	r2,0(r2)
   80f64:	100b883a 	mov	r5,r2
   80f68:	01000274 	movhi	r4,9
   80f6c:	2107f604 	addi	r4,r4,8152
   80f70:	00830800 	call	83080 <printf>
	printf("Config Register: 0x%x\n", *(tse + 0x02));
   80f74:	d0a00017 	ldw	r2,-32768(gp)
   80f78:	10800204 	addi	r2,r2,8
   80f7c:	10800017 	ldw	r2,0(r2)
   80f80:	100b883a 	mov	r5,r2
   80f84:	01000274 	movhi	r4,9
   80f88:	2107fe04 	addi	r4,r4,8184
   80f8c:	00830800 	call	83080 <printf>

	// Wait until transmit descriptor transfer is complete
	while (alt_avalon_sgdma_check_descriptor_status(&tx_descriptor) != 0)
   80f90:	0001883a 	nop
   80f94:	01000434 	movhi	r4,16
   80f98:	21000004 	addi	r4,r4,0
   80f9c:	00902100 	call	90210 <alt_avalon_sgdma_check_descriptor_status>
   80fa0:	103ffc1e 	bne	r2,zero,80f94 <rx_descriptor_end+0xfff80f34>
	/*	// Create new sgdma transmit descriptor
	alt_avalon_sgdma_construct_mem_to_stream_desc(&tx_descriptor, &tx_descriptor_end, (alt_u32 *)tx_frame, strlen(tx_frame)+6+6+2, 0, 1, 1, 0);

	// Set up non-blocking transfer of sgdma transmit descriptor
	alt_avalon_sgdma_do_async_transfer(sgdma_tx_dev, &tx_descriptor);*/
}
   80fa4:	0001883a 	nop
   80fa8:	e037883a 	mov	sp,fp
   80fac:	dfc00117 	ldw	ra,4(sp)
   80fb0:	df000017 	ldw	fp,0(sp)
   80fb4:	dec00204 	addi	sp,sp,8
   80fb8:	f800283a 	ret

00080fbc <connect>:
int seqNumber = 0x00;
int ackNumber = 0x00;

int timer;

int connect(int device, unsigned char * sourceIP, unsigned char * sourcePort, unsigned char * destinationIP, unsigned char * destinationPort){
   80fbc:	defff904 	addi	sp,sp,-28
   80fc0:	dfc00615 	stw	ra,24(sp)
   80fc4:	df000515 	stw	fp,20(sp)
   80fc8:	df000504 	addi	fp,sp,20
   80fcc:	e13ffc15 	stw	r4,-16(fp)
   80fd0:	e17ffd15 	stw	r5,-12(fp)
   80fd4:	e1bffe15 	stw	r6,-8(fp)
   80fd8:	e1ffff15 	stw	r7,-4(fp)
	conn->syn[0] = 0x01;
   80fdc:	d0a7f017 	ldw	r2,-24640(gp)
   80fe0:	00c00044 	movi	r3,1
   80fe4:	10c00205 	stb	r3,8(r2)
	conn->fin[0] = 0x00;
   80fe8:	d0a7f017 	ldw	r2,-24640(gp)
   80fec:	10000285 	stb	zero,10(r2)
	memmove(conn->destPort, destinationPort, 2);
   80ff0:	d0a7f017 	ldw	r2,-24640(gp)
   80ff4:	10800084 	addi	r2,r2,2
   80ff8:	01800084 	movi	r6,2
   80ffc:	e1400217 	ldw	r5,8(fp)
   81000:	1009883a 	mov	r4,r2
   81004:	0082dcc0 	call	82dcc <memmove>
	memmove(conn->sourcePort, sourcePort, 2);
   81008:	d0a7f017 	ldw	r2,-24640(gp)
   8100c:	01800084 	movi	r6,2
   81010:	e17ffe17 	ldw	r5,-8(fp)
   81014:	1009883a 	mov	r4,r2
   81018:	0082dcc0 	call	82dcc <memmove>
	conn->seqNum[0] = seqNumber;
   8101c:	d0a7f017 	ldw	r2,-24640(gp)
   81020:	d0e7ee17 	ldw	r3,-24648(gp)
   81024:	10c00105 	stb	r3,4(r2)
	conn->ackNum[0] = ackNumber;
   81028:	d0a7f017 	ldw	r2,-24640(gp)
   8102c:	d0e7ef17 	ldw	r3,-24644(gp)
   81030:	10c00185 	stb	r3,6(r2)
	conn->data[0] = 0x00;
   81034:	d0a7f017 	ldw	r2,-24640(gp)
   81038:	10000305 	stb	zero,12(r2)
	memmove(pack->sourceIP, sourceIP, 4);
   8103c:	d0a7f617 	ldw	r2,-24616(gp)
   81040:	01800104 	movi	r6,4
   81044:	e17ffd17 	ldw	r5,-12(fp)
   81048:	1009883a 	mov	r4,r2
   8104c:	0082dcc0 	call	82dcc <memmove>
	memmove(pack->destIP, destinationIP, 4);
   81050:	d0a7f617 	ldw	r2,-24616(gp)
   81054:	10800104 	addi	r2,r2,4
   81058:	01800104 	movi	r6,4
   8105c:	e17fff17 	ldw	r5,-4(fp)
   81060:	1009883a 	mov	r4,r2
   81064:	0082dcc0 	call	82dcc <memmove>
	pack->payload = conn;
   81068:	d0a7f617 	ldw	r2,-24616(gp)
   8106c:	d0e7f017 	ldw	r3,-24640(gp)
   81070:	10c00215 	stw	r3,8(r2)
	sentPacket = pack;
   81074:	d0a7f617 	ldw	r2,-24616(gp)
   81078:	d0a7f215 	stw	r2,-24632(gp)
	transmit(device, pack);//Send Connection Request
   8107c:	d0a7f617 	ldw	r2,-24616(gp)
   81080:	100b883a 	mov	r5,r2
   81084:	e13ffc17 	ldw	r4,-16(fp)
   81088:	00802900 	call	80290 <transmit>
	IOWR_ALTERA_AVALON_TIMER_STATUS(TIMER_BASE, 0x0002);
   8108c:	00c00084 	movi	r3,2
   81090:	00800434 	movhi	r2,16
   81094:	10892004 	addi	r2,r2,9344
   81098:	10c00035 	stwio	r3,0(r2)
	IOWR_ALTERA_AVALON_TIMER_PERIODL(TIMER_BASE , 0xFFFF);
   8109c:	00ffffd4 	movui	r3,65535
   810a0:	00800434 	movhi	r2,16
   810a4:	10892204 	addi	r2,r2,9352
   810a8:	10c00035 	stwio	r3,0(r2)
	IOWR_ALTERA_AVALON_TIMER_PERIODH(TIMER_BASE , 0xFFFF);
   810ac:	00ffffd4 	movui	r3,65535
   810b0:	00800434 	movhi	r2,16
   810b4:	10892304 	addi	r2,r2,9356
   810b8:	10c00035 	stwio	r3,0(r2)
	IOWR_ALTERA_AVALON_TIMER_CONTROL(TIMER_BASE, 0x0004);
   810bc:	00c00104 	movi	r3,4
   810c0:	00800434 	movhi	r2,16
   810c4:	10892104 	addi	r2,r2,9348
   810c8:	10c00035 	stwio	r3,0(r2)
	char * receivedBuffer = {0};
   810cc:	e03ffb15 	stw	zero,-20(fp)
	receivedBuffer = receive(device);//Wait to receive SYNACK
   810d0:	e13ffc17 	ldw	r4,-16(fp)
   810d4:	00806b00 	call	806b0 <receive>
   810d8:	e0bffb15 	stw	r2,-20(fp)
	if(receivedBuffer[32] == 0x01){
   810dc:	e0bffb17 	ldw	r2,-20(fp)
   810e0:	10800804 	addi	r2,r2,32
   810e4:	10800003 	ldbu	r2,0(r2)
   810e8:	10803fcc 	andi	r2,r2,255
   810ec:	1080201c 	xori	r2,r2,128
   810f0:	10bfe004 	addi	r2,r2,-128
   810f4:	10800058 	cmpnei	r2,r2,1
   810f8:	1000231e 	bne	r2,zero,81188 <connect+0x1cc>
		pack->payload->syn[0] = 0x00;
   810fc:	d0a7f617 	ldw	r2,-24616(gp)
   81100:	10800217 	ldw	r2,8(r2)
   81104:	10000205 	stb	zero,8(r2)
		pack->payload->data[0] = 0x02;
   81108:	d0a7f617 	ldw	r2,-24616(gp)
   8110c:	10800217 	ldw	r2,8(r2)
   81110:	00c00084 	movi	r3,2
   81114:	10c00305 	stb	r3,12(r2)
		pack->payload->seqNum[0] = ++seqNumber;
   81118:	d0a7f617 	ldw	r2,-24616(gp)
   8111c:	10800217 	ldw	r2,8(r2)
   81120:	d0e7ee17 	ldw	r3,-24648(gp)
   81124:	18c00044 	addi	r3,r3,1
   81128:	d0e7ee15 	stw	r3,-24648(gp)
   8112c:	d0e7ee17 	ldw	r3,-24648(gp)
   81130:	10c00105 	stb	r3,4(r2)
		pack->payload->ackNum[0] = ++ackNumber;
   81134:	d0a7f617 	ldw	r2,-24616(gp)
   81138:	10800217 	ldw	r2,8(r2)
   8113c:	d0e7ef17 	ldw	r3,-24644(gp)
   81140:	18c00044 	addi	r3,r3,1
   81144:	d0e7ef15 	stw	r3,-24644(gp)
   81148:	d0e7ef17 	ldw	r3,-24644(gp)
   8114c:	10c00185 	stb	r3,6(r2)
		transmit(device, pack);//send ack
   81150:	d0a7f617 	ldw	r2,-24616(gp)
   81154:	100b883a 	mov	r5,r2
   81158:	e13ffc17 	ldw	r4,-16(fp)
   8115c:	00802900 	call	80290 <transmit>
		IOWR_ALTERA_AVALON_TIMER_CONTROL(TIMER_BASE, 0x0008);
   81160:	00c00204 	movi	r3,8
   81164:	00800434 	movhi	r2,16
   81168:	10892104 	addi	r2,r2,9348
   8116c:	10c00035 	stwio	r3,0(r2)
		IOWR_ALTERA_AVALON_TIMER_STATUS(TIMER_BASE, 0x0002);
   81170:	00c00084 	movi	r3,2
   81174:	00800434 	movhi	r2,16
   81178:	10892004 	addi	r2,r2,9344
   8117c:	10c00035 	stwio	r3,0(r2)
		return 1;
   81180:	00800044 	movi	r2,1
   81184:	00000f06 	br	811c4 <connect+0x208>
	}else{
		alt_printf("Connection Failed");
   81188:	01000274 	movhi	r4,9
   8118c:	21080404 	addi	r4,r4,8208
   81190:	008ea700 	call	8ea70 <alt_printf>
		timer = IORD_ALTERA_AVALON_TIMER_STATUS(TIMER_BASE);
   81194:	00800434 	movhi	r2,16
   81198:	10892004 	addi	r2,r2,9344
   8119c:	10800037 	ldwio	r2,0(r2)
   811a0:	d0a7f115 	stw	r2,-24636(gp)
		if(timer == 1){
   811a4:	d0a7f117 	ldw	r2,-24636(gp)
   811a8:	10800058 	cmpnei	r2,r2,1
   811ac:	1000041e 	bne	r2,zero,811c0 <connect+0x204>
			transmit(device, sentPacket);
   811b0:	d0a7f217 	ldw	r2,-24632(gp)
   811b4:	100b883a 	mov	r5,r2
   811b8:	e13ffc17 	ldw	r4,-16(fp)
   811bc:	00802900 	call	80290 <transmit>
		}
		return 0;
   811c0:	0005883a 	mov	r2,zero
	}
}
   811c4:	e037883a 	mov	sp,fp
   811c8:	dfc00117 	ldw	ra,4(sp)
   811cc:	df000017 	ldw	fp,0(sp)
   811d0:	dec00204 	addi	sp,sp,8
   811d4:	f800283a 	ret

000811d8 <send>:

int send(int device, unsigned char data){
   811d8:	defffb04 	addi	sp,sp,-20
   811dc:	dfc00415 	stw	ra,16(sp)
   811e0:	df000315 	stw	fp,12(sp)
   811e4:	df000304 	addi	fp,sp,12
   811e8:	e13ffe15 	stw	r4,-8(fp)
   811ec:	2805883a 	mov	r2,r5
   811f0:	e0bfff05 	stb	r2,-4(fp)

	conn->syn[0] = 0x00;
   811f4:	d0a7f017 	ldw	r2,-24640(gp)
   811f8:	10000205 	stb	zero,8(r2)
	conn->fin[0] = 0x00;
   811fc:	d0a7f017 	ldw	r2,-24640(gp)
   81200:	10000285 	stb	zero,10(r2)
	conn->seqNum[0] = seqNumber;
   81204:	d0a7f017 	ldw	r2,-24640(gp)
   81208:	d0e7ee17 	ldw	r3,-24648(gp)
   8120c:	10c00105 	stb	r3,4(r2)
	conn->ackNum[0] = ackNumber;
   81210:	d0a7f017 	ldw	r2,-24640(gp)
   81214:	d0e7ef17 	ldw	r3,-24644(gp)
   81218:	10c00185 	stb	r3,6(r2)
	conn->data[0] = data;
   8121c:	d0a7f017 	ldw	r2,-24640(gp)
   81220:	e0ffff03 	ldbu	r3,-4(fp)
   81224:	10c00305 	stb	r3,12(r2)
	pack->payload = conn;
   81228:	d0a7f617 	ldw	r2,-24616(gp)
   8122c:	d0e7f017 	ldw	r3,-24640(gp)
   81230:	10c00215 	stw	r3,8(r2)

	sentPacket = pack;
   81234:	d0a7f617 	ldw	r2,-24616(gp)
   81238:	d0a7f215 	stw	r2,-24632(gp)
	transmit(device, pack);
   8123c:	d0a7f617 	ldw	r2,-24616(gp)
   81240:	100b883a 	mov	r5,r2
   81244:	e13ffe17 	ldw	r4,-8(fp)
   81248:	00802900 	call	80290 <transmit>

	IOWR_ALTERA_AVALON_TIMER_STATUS(TIMER_BASE, 0x0002);
   8124c:	00c00084 	movi	r3,2
   81250:	00800434 	movhi	r2,16
   81254:	10892004 	addi	r2,r2,9344
   81258:	10c00035 	stwio	r3,0(r2)
	IOWR_ALTERA_AVALON_TIMER_PERIODL(TIMER_BASE , 0xAAAA);
   8125c:	00eaaa94 	movui	r3,43690
   81260:	00800434 	movhi	r2,16
   81264:	10892204 	addi	r2,r2,9352
   81268:	10c00035 	stwio	r3,0(r2)
	IOWR_ALTERA_AVALON_TIMER_PERIODH(TIMER_BASE , 0x002F);
   8126c:	00c00bc4 	movi	r3,47
   81270:	00800434 	movhi	r2,16
   81274:	10892304 	addi	r2,r2,9356
   81278:	10c00035 	stwio	r3,0(r2)
	IOWR_ALTERA_AVALON_TIMER_CONTROL(TIMER_BASE, 0x0004);
   8127c:	00c00104 	movi	r3,4
   81280:	00800434 	movhi	r2,16
   81284:	10892104 	addi	r2,r2,9348
   81288:	10c00035 	stwio	r3,0(r2)

	unsigned char * receivedBuffer;

	receivedBuffer = receive(device);
   8128c:	e13ffe17 	ldw	r4,-8(fp)
   81290:	00806b00 	call	806b0 <receive>
   81294:	e0bffd15 	stw	r2,-12(fp)
	if(receivedBuffer[32] == 0x02){
   81298:	e0bffd17 	ldw	r2,-12(fp)
   8129c:	10800804 	addi	r2,r2,32
   812a0:	10800003 	ldbu	r2,0(r2)
   812a4:	10803fcc 	andi	r2,r2,255
   812a8:	10800098 	cmpnei	r2,r2,2
   812ac:	1000131e 	bne	r2,zero,812fc <send+0x124>
		IOWR_ALTERA_AVALON_TIMER_CONTROL(TIMER_BASE, 0x0008);
   812b0:	00c00204 	movi	r3,8
   812b4:	00800434 	movhi	r2,16
   812b8:	10892104 	addi	r2,r2,9348
   812bc:	10c00035 	stwio	r3,0(r2)
		IOWR_ALTERA_AVALON_TIMER_STATUS(TIMER_BASE, 0x0002);
   812c0:	00c00084 	movi	r3,2
   812c4:	00800434 	movhi	r2,16
   812c8:	10892004 	addi	r2,r2,9344
   812cc:	10c00035 	stwio	r3,0(r2)
		alt_printf("Ack received");
   812d0:	01000274 	movhi	r4,9
   812d4:	21080904 	addi	r4,r4,8228
   812d8:	008ea700 	call	8ea70 <alt_printf>
		seqNumber++;
   812dc:	d0a7ee17 	ldw	r2,-24648(gp)
   812e0:	10800044 	addi	r2,r2,1
   812e4:	d0a7ee15 	stw	r2,-24648(gp)
		ackNumber++;
   812e8:	d0a7ef17 	ldw	r2,-24644(gp)
   812ec:	10800044 	addi	r2,r2,1
   812f0:	d0a7ef15 	stw	r2,-24644(gp)
		return 1;//sent and ack received
   812f4:	00800044 	movi	r2,1
   812f8:	00000e06 	br	81334 <send+0x15c>
	}
	else{
		alt_printf("Timeout Occurred");
   812fc:	01000274 	movhi	r4,9
   81300:	21080d04 	addi	r4,r4,8244
   81304:	008ea700 	call	8ea70 <alt_printf>
		timer = IORD_ALTERA_AVALON_TIMER_STATUS(TIMER_BASE);
   81308:	00800434 	movhi	r2,16
   8130c:	10892004 	addi	r2,r2,9344
   81310:	10800037 	ldwio	r2,0(r2)
   81314:	d0a7f115 	stw	r2,-24636(gp)
		if(timer == 1){
   81318:	d0a7f117 	ldw	r2,-24636(gp)
   8131c:	10800058 	cmpnei	r2,r2,1
   81320:	1000041e 	bne	r2,zero,81334 <send+0x15c>
			transmit(device, sentPacket);
   81324:	d0a7f217 	ldw	r2,-24632(gp)
   81328:	100b883a 	mov	r5,r2
   8132c:	e13ffe17 	ldw	r4,-8(fp)
   81330:	00802900 	call	80290 <transmit>
		}
	}
}
   81334:	e037883a 	mov	sp,fp
   81338:	dfc00117 	ldw	ra,4(sp)
   8133c:	df000017 	ldw	fp,0(sp)
   81340:	dec00204 	addi	sp,sp,8
   81344:	f800283a 	ret

00081348 <accept>:


int accept(int device){
   81348:	defffb04 	addi	sp,sp,-20
   8134c:	dfc00415 	stw	ra,16(sp)
   81350:	df000315 	stw	fp,12(sp)
   81354:	df000304 	addi	fp,sp,12
   81358:	e13fff15 	stw	r4,-4(fp)
	//TODO: Check if destIP, port is myIP, port
	unsigned char * request;
	request = receive(device);
   8135c:	e13fff17 	ldw	r4,-4(fp)
   81360:	00806b00 	call	806b0 <receive>
   81364:	e0bffd15 	stw	r2,-12(fp)

	conn->syn[0] = 0x01;
   81368:	d0a7f017 	ldw	r2,-24640(gp)
   8136c:	00c00044 	movi	r3,1
   81370:	10c00205 	stb	r3,8(r2)
	conn->fin[0] = 0x00;
   81374:	d0a7f017 	ldw	r2,-24640(gp)
   81378:	10000285 	stb	zero,10(r2)
	memmove(conn->destPort, request+24, 2);
   8137c:	d0a7f017 	ldw	r2,-24640(gp)
   81380:	10c00084 	addi	r3,r2,2
   81384:	e0bffd17 	ldw	r2,-12(fp)
   81388:	10800604 	addi	r2,r2,24
   8138c:	01800084 	movi	r6,2
   81390:	100b883a 	mov	r5,r2
   81394:	1809883a 	mov	r4,r3
   81398:	0082dcc0 	call	82dcc <memmove>
	memmove(conn->sourcePort, request+26, 2);
   8139c:	d0a7f017 	ldw	r2,-24640(gp)
   813a0:	1007883a 	mov	r3,r2
   813a4:	e0bffd17 	ldw	r2,-12(fp)
   813a8:	10800684 	addi	r2,r2,26
   813ac:	01800084 	movi	r6,2
   813b0:	100b883a 	mov	r5,r2
   813b4:	1809883a 	mov	r4,r3
   813b8:	0082dcc0 	call	82dcc <memmove>
	conn->seqNum[0] = seqNumber;
   813bc:	d0a7f017 	ldw	r2,-24640(gp)
   813c0:	d0e7ee17 	ldw	r3,-24648(gp)
   813c4:	10c00105 	stb	r3,4(r2)
	conn->ackNum[0] = ackNumber;
   813c8:	d0a7f017 	ldw	r2,-24640(gp)
   813cc:	d0e7ef17 	ldw	r3,-24644(gp)
   813d0:	10c00185 	stb	r3,6(r2)
	conn->data[0] = 0x01;
   813d4:	d0a7f017 	ldw	r2,-24640(gp)
   813d8:	00c00044 	movi	r3,1
   813dc:	10c00305 	stb	r3,12(r2)

	memmove(pack->sourceIP, request+20, 4);
   813e0:	d0a7f617 	ldw	r2,-24616(gp)
   813e4:	1007883a 	mov	r3,r2
   813e8:	e0bffd17 	ldw	r2,-12(fp)
   813ec:	10800504 	addi	r2,r2,20
   813f0:	01800104 	movi	r6,4
   813f4:	100b883a 	mov	r5,r2
   813f8:	1809883a 	mov	r4,r3
   813fc:	0082dcc0 	call	82dcc <memmove>
	memmove(pack->destIP, request+20, 4);
   81400:	d0a7f617 	ldw	r2,-24616(gp)
   81404:	10c00104 	addi	r3,r2,4
   81408:	e0bffd17 	ldw	r2,-12(fp)
   8140c:	10800504 	addi	r2,r2,20
   81410:	01800104 	movi	r6,4
   81414:	100b883a 	mov	r5,r2
   81418:	1809883a 	mov	r4,r3
   8141c:	0082dcc0 	call	82dcc <memmove>
	pack->payload = conn;
   81420:	d0a7f617 	ldw	r2,-24616(gp)
   81424:	d0e7f017 	ldw	r3,-24640(gp)
   81428:	10c00215 	stw	r3,8(r2)

	if(request[28] == 0x01){
   8142c:	e0bffd17 	ldw	r2,-12(fp)
   81430:	10800704 	addi	r2,r2,28
   81434:	10800003 	ldbu	r2,0(r2)
   81438:	10803fcc 	andi	r2,r2,255
   8143c:	10800058 	cmpnei	r2,r2,1
   81440:	1000061e 	bne	r2,zero,8145c <accept+0x114>
		sentPacket = pack;
   81444:	d0a7f617 	ldw	r2,-24616(gp)
   81448:	d0a7f215 	stw	r2,-24632(gp)
		transmit(device, pack);
   8144c:	d0a7f617 	ldw	r2,-24616(gp)
   81450:	100b883a 	mov	r5,r2
   81454:	e13fff17 	ldw	r4,-4(fp)
   81458:	00802900 	call	80290 <transmit>
		//return 1;
		//return 1;
	}

	unsigned char * ack;
	ack = receive(device);
   8145c:	e13fff17 	ldw	r4,-4(fp)
   81460:	00806b00 	call	806b0 <receive>
   81464:	e0bffe15 	stw	r2,-8(fp)
	if(ack[32] == 0x02){
   81468:	e0bffe17 	ldw	r2,-8(fp)
   8146c:	10800804 	addi	r2,r2,32
   81470:	10800003 	ldbu	r2,0(r2)
   81474:	10803fcc 	andi	r2,r2,255
   81478:	10800098 	cmpnei	r2,r2,2
   8147c:	1000091e 	bne	r2,zero,814a4 <accept+0x15c>
		//Received Ack
		printf("Three way handshake complete");
   81480:	01000274 	movhi	r4,9
   81484:	21081204 	addi	r4,r4,8264
   81488:	00830800 	call	83080 <printf>
		fflush(stdout);
   8148c:	d0a00217 	ldw	r2,-32760(gp)
   81490:	10800217 	ldw	r2,8(r2)
   81494:	1009883a 	mov	r4,r2
   81498:	0081c0c0 	call	81c0c <fflush>
		return 1;
   8149c:	00800044 	movi	r2,1
   814a0:	00000106 	br	814a8 <accept+0x160>
	}
	else return 0;
   814a4:	0005883a 	mov	r2,zero
}
   814a8:	e037883a 	mov	sp,fp
   814ac:	dfc00117 	ldw	ra,4(sp)
   814b0:	df000017 	ldw	fp,0(sp)
   814b4:	dec00204 	addi	sp,sp,8
   814b8:	f800283a 	ret

000814bc <recv>:

int recv(int device){
   814bc:	defffc04 	addi	sp,sp,-16
   814c0:	dfc00315 	stw	ra,12(sp)
   814c4:	df000215 	stw	fp,8(sp)
   814c8:	df000204 	addi	fp,sp,8
   814cc:	e13fff15 	stw	r4,-4(fp)
	unsigned char * recvData;
	//signed char * recvData;
	recvData = receive(device);
   814d0:	e13fff17 	ldw	r4,-4(fp)
   814d4:	00806b00 	call	806b0 <receive>
   814d8:	e0bffe15 	stw	r2,-8(fp)
	if(recvData[32]!= 0x02){
   814dc:	e0bffe17 	ldw	r2,-8(fp)
   814e0:	10800804 	addi	r2,r2,32
   814e4:	10800003 	ldbu	r2,0(r2)
   814e8:	10803fcc 	andi	r2,r2,255
   814ec:	108000a0 	cmpeqi	r2,r2,2
   814f0:	1000171e 	bne	r2,zero,81550 <recv+0x94>
		//Store Data
		//Send Ack
		pack->payload->syn[0] = 0x00;
   814f4:	d0a7f617 	ldw	r2,-24616(gp)
   814f8:	10800217 	ldw	r2,8(r2)
   814fc:	10000205 	stb	zero,8(r2)
		pack->payload->data[0] = 0x02;
   81500:	d0a7f617 	ldw	r2,-24616(gp)
   81504:	10800217 	ldw	r2,8(r2)
   81508:	00c00084 	movi	r3,2
   8150c:	10c00305 	stb	r3,12(r2)
		transmit(device, pack);
   81510:	d0a7f617 	ldw	r2,-24616(gp)
   81514:	100b883a 	mov	r5,r2
   81518:	e13fff17 	ldw	r4,-4(fp)
   8151c:	00802900 	call	80290 <transmit>
		printf("Data Received: %x\n",recvData+32);
   81520:	e0bffe17 	ldw	r2,-8(fp)
   81524:	10800804 	addi	r2,r2,32
   81528:	100b883a 	mov	r5,r2
   8152c:	01000274 	movhi	r4,9
   81530:	21081a04 	addi	r4,r4,8296
   81534:	00830800 	call	83080 <printf>
		fflush(stdout);
   81538:	d0a00217 	ldw	r2,-32760(gp)
   8153c:	10800217 	ldw	r2,8(r2)
   81540:	1009883a 	mov	r4,r2
   81544:	0081c0c0 	call	81c0c <fflush>
		return 1;
   81548:	00800044 	movi	r2,1
   8154c:	00000306 	br	8155c <recv+0xa0>
	}
	else{
		printf("Ack received");
   81550:	01000274 	movhi	r4,9
   81554:	21080904 	addi	r4,r4,8228
   81558:	00830800 	call	83080 <printf>
	}
}
   8155c:	e037883a 	mov	sp,fp
   81560:	dfc00117 	ldw	ra,4(sp)
   81564:	df000017 	ldw	fp,0(sp)
   81568:	dec00204 	addi	sp,sp,8
   8156c:	f800283a 	ret

00081570 <disconnect>:

int disconnect(int device){
   81570:	defffc04 	addi	sp,sp,-16
   81574:	dfc00315 	stw	ra,12(sp)
   81578:	df000215 	stw	fp,8(sp)
   8157c:	df000204 	addi	fp,sp,8
   81580:	e13fff15 	stw	r4,-4(fp)

	conn->fin[0] = 0x01;
   81584:	d0a7f017 	ldw	r2,-24640(gp)
   81588:	00c00044 	movi	r3,1
   8158c:	10c00285 	stb	r3,10(r2)
	sentPacket = pack;
   81590:	d0a7f617 	ldw	r2,-24616(gp)
   81594:	d0a7f215 	stw	r2,-24632(gp)
	transmit(device, pack);
   81598:	d0a7f617 	ldw	r2,-24616(gp)
   8159c:	100b883a 	mov	r5,r2
   815a0:	e13fff17 	ldw	r4,-4(fp)
   815a4:	00802900 	call	80290 <transmit>

	IOWR_ALTERA_AVALON_TIMER_STATUS(TIMER_BASE, 0x0002);
   815a8:	00c00084 	movi	r3,2
   815ac:	00800434 	movhi	r2,16
   815b0:	10892004 	addi	r2,r2,9344
   815b4:	10c00035 	stwio	r3,0(r2)
	IOWR_ALTERA_AVALON_TIMER_PERIODL(TIMER_BASE , 0xAAAA);
   815b8:	00eaaa94 	movui	r3,43690
   815bc:	00800434 	movhi	r2,16
   815c0:	10892204 	addi	r2,r2,9352
   815c4:	10c00035 	stwio	r3,0(r2)
	IOWR_ALTERA_AVALON_TIMER_PERIODH(TIMER_BASE , 0xFFFF);
   815c8:	00ffffd4 	movui	r3,65535
   815cc:	00800434 	movhi	r2,16
   815d0:	10892304 	addi	r2,r2,9356
   815d4:	10c00035 	stwio	r3,0(r2)
	IOWR_ALTERA_AVALON_TIMER_CONTROL(TIMER_BASE, 0x0004);
   815d8:	00c00104 	movi	r3,4
   815dc:	00800434 	movhi	r2,16
   815e0:	10892104 	addi	r2,r2,9348
   815e4:	10c00035 	stwio	r3,0(r2)

	unsigned char * discon_temp;

	discon_temp = receive(device);
   815e8:	e13fff17 	ldw	r4,-4(fp)
   815ec:	00806b00 	call	806b0 <receive>
   815f0:	e0bffe15 	stw	r2,-8(fp)
	if(discon_temp[32]==0x02){
   815f4:	e0bffe17 	ldw	r2,-8(fp)
   815f8:	10800804 	addi	r2,r2,32
   815fc:	10800003 	ldbu	r2,0(r2)
   81600:	10803fcc 	andi	r2,r2,255
   81604:	10800098 	cmpnei	r2,r2,2
   81608:	10000d1e 	bne	r2,zero,81640 <disconnect+0xd0>
		IOWR_ALTERA_AVALON_TIMER_CONTROL(TIMER_BASE, 0x0008);
   8160c:	00c00204 	movi	r3,8
   81610:	00800434 	movhi	r2,16
   81614:	10892104 	addi	r2,r2,9348
   81618:	10c00035 	stwio	r3,0(r2)
		IOWR_ALTERA_AVALON_TIMER_STATUS(TIMER_BASE, 0x0002);
   8161c:	00c00084 	movi	r3,2
   81620:	00800434 	movhi	r2,16
   81624:	10892004 	addi	r2,r2,9344
   81628:	10c00035 	stwio	r3,0(r2)
		printf("Disconnected");
   8162c:	01000274 	movhi	r4,9
   81630:	21081f04 	addi	r4,r4,8316
   81634:	00830800 	call	83080 <printf>
		return 1;
   81638:	00800044 	movi	r2,1
   8163c:	00000006 	br	81640 <disconnect+0xd0>
	}
}
   81640:	e037883a 	mov	sp,fp
   81644:	dfc00117 	ldw	ra,4(sp)
   81648:	df000017 	ldw	fp,0(sp)
   8164c:	dec00204 	addi	sp,sp,8
   81650:	f800283a 	ret

00081654 <recDisconnect>:

int recDisconnect(int device){
   81654:	defffc04 	addi	sp,sp,-16
   81658:	dfc00315 	stw	ra,12(sp)
   8165c:	df000215 	stw	fp,8(sp)
   81660:	df000204 	addi	fp,sp,8
   81664:	e13fff15 	stw	r4,-4(fp)
	unsigned char * dreq;
	dreq = receive(device);
   81668:	e13fff17 	ldw	r4,-4(fp)
   8166c:	00806b00 	call	806b0 <receive>
   81670:	e0bffe15 	stw	r2,-8(fp)
	if(dreq[29] == 0x01){
   81674:	e0bffe17 	ldw	r2,-8(fp)
   81678:	10800744 	addi	r2,r2,29
   8167c:	10800003 	ldbu	r2,0(r2)
   81680:	10803fcc 	andi	r2,r2,255
   81684:	10800058 	cmpnei	r2,r2,1
   81688:	1000091e 	bne	r2,zero,816b0 <recDisconnect+0x5c>
		//send ack
		conn->data[0] = 0x02;
   8168c:	d0a7f017 	ldw	r2,-24640(gp)
   81690:	00c00084 	movi	r3,2
   81694:	10c00305 	stb	r3,12(r2)
		transmit(device, pack);
   81698:	d0a7f617 	ldw	r2,-24616(gp)
   8169c:	100b883a 	mov	r5,r2
   816a0:	e13fff17 	ldw	r4,-4(fp)
   816a4:	00802900 	call	80290 <transmit>
		return 1;
   816a8:	00800044 	movi	r2,1
   816ac:	00000006 	br	816b0 <recDisconnect+0x5c>
	}
}
   816b0:	e037883a 	mov	sp,fp
   816b4:	dfc00117 	ldw	ra,4(sp)
   816b8:	df000017 	ldw	fp,0(sp)
   816bc:	dec00204 	addi	sp,sp,8
   816c0:	f800283a 	ret

000816c4 <main>:


int main(void){
   816c4:	defff204 	addi	sp,sp,-56
   816c8:	dfc00d15 	stw	ra,52(sp)
   816cc:	df000c15 	stw	fp,48(sp)
   816d0:	df000c04 	addi	fp,sp,48
	//TODO:
	while(1){
		//sentPacket = (struct packet*)malloc(sizeof(struct packet));
		pack = (struct packet*)malloc(sizeof(struct packet));
   816d4:	01000304 	movi	r4,12
   816d8:	00825980 	call	82598 <malloc>
   816dc:	d0a7f615 	stw	r2,-24616(gp)
		conn = (struct segment*)malloc(sizeof(struct segment));
   816e0:	01000384 	movi	r4,14
   816e4:	00825980 	call	82598 <malloc>
   816e8:	d0a7f015 	stw	r2,-24640(gp)
		// IP addressed must be set here
		//int *array = malloc(10 * sizeof(int));
		unsigned char * IP1= malloc(4 * sizeof(unsigned char));
   816ec:	01000104 	movi	r4,4
   816f0:	00825980 	call	82598 <malloc>
   816f4:	e0bff715 	stw	r2,-36(fp)
		//{0xC0,0xA8,0x01,0x01};	//192.168.1.1  //new is 169.254.54.102
		IP1[0] = 0xA9;
   816f8:	e0bff717 	ldw	r2,-36(fp)
   816fc:	00ffea44 	movi	r3,-87
   81700:	10c00005 	stb	r3,0(r2)
		IP1[1] = 0xFE;
   81704:	e0bff717 	ldw	r2,-36(fp)
   81708:	10800044 	addi	r2,r2,1
   8170c:	00ffff84 	movi	r3,-2
   81710:	10c00005 	stb	r3,0(r2)
		IP1[2] = 0x36;
   81714:	e0bff717 	ldw	r2,-36(fp)
   81718:	10800084 	addi	r2,r2,2
   8171c:	00c00d84 	movi	r3,54
   81720:	10c00005 	stb	r3,0(r2)
		IP1[3] = 0x66;
   81724:	e0bff717 	ldw	r2,-36(fp)
   81728:	108000c4 	addi	r2,r2,3
   8172c:	00c01984 	movi	r3,102
   81730:	10c00005 	stb	r3,0(r2)
		//{0xC0,0xA8,0x01,0x02}; 	//192.168.1.2
		unsigned char * IP2= malloc(4 * sizeof(unsigned char));
   81734:	01000104 	movi	r4,4
   81738:	00825980 	call	82598 <malloc>
   8173c:	e0bff815 	stw	r2,-32(fp)
		IP2[0] = 0xA9;
   81740:	e0bff817 	ldw	r2,-32(fp)
   81744:	00ffea44 	movi	r3,-87
   81748:	10c00005 	stb	r3,0(r2)
		IP2[1] = 0xFE;
   8174c:	e0bff817 	ldw	r2,-32(fp)
   81750:	10800044 	addi	r2,r2,1
   81754:	00ffff84 	movi	r3,-2
   81758:	10c00005 	stb	r3,0(r2)
		IP2[2] = 0x6F;
   8175c:	e0bff817 	ldw	r2,-32(fp)
   81760:	10800084 	addi	r2,r2,2
   81764:	00c01bc4 	movi	r3,111
   81768:	10c00005 	stb	r3,0(r2)
		IP2[3] = 0xEF;
   8176c:	e0bff817 	ldw	r2,-32(fp)
   81770:	108000c4 	addi	r2,r2,3
   81774:	00fffbc4 	movi	r3,-17
   81778:	10c00005 	stb	r3,0(r2)

		unsigned char * sPort = malloc(2 * sizeof(unsigned char)); //set aside spot for both port values
   8177c:	01000084 	movi	r4,2
   81780:	00825980 	call	82598 <malloc>
   81784:	e0bff915 	stw	r2,-28(fp)
		sPort[0] = 0x27;
   81788:	e0bff917 	ldw	r2,-28(fp)
   8178c:	00c009c4 	movi	r3,39
   81790:	10c00005 	stb	r3,0(r2)
		sPort[1] = 0x0F;			//9999
   81794:	e0bff917 	ldw	r2,-28(fp)
   81798:	10800044 	addi	r2,r2,1
   8179c:	00c003c4 	movi	r3,15
   817a0:	10c00005 	stb	r3,0(r2)

		unsigned char * dPort = malloc(2 * sizeof(unsigned char));
   817a4:	01000084 	movi	r4,2
   817a8:	00825980 	call	82598 <malloc>
   817ac:	e0bffa15 	stw	r2,-24(fp)
		dPort[0] = 0x23;
   817b0:	e0bffa17 	ldw	r2,-24(fp)
   817b4:	00c008c4 	movi	r3,35
   817b8:	10c00005 	stb	r3,0(r2)
		dPort[1] = 0x82;			//9090
   817bc:	e0bffa17 	ldw	r2,-24(fp)
   817c0:	10800044 	addi	r2,r2,1
   817c4:	00ffe084 	movi	r3,-126
   817c8:	10c00005 	stb	r3,0(r2)

		IOWR_ALTERA_AVALON_TIMER_CONTROL(TIMER_BASE, 0x0000);
   817cc:	0007883a 	mov	r3,zero
   817d0:	00800434 	movhi	r2,16
   817d4:	10892104 	addi	r2,r2,9348
   817d8:	10c00035 	stwio	r3,0(r2)
		IOWR_ALTERA_AVALON_TIMER_STATUS(TIMER_BASE, 0x0000);
   817dc:	0007883a 	mov	r3,zero
   817e0:	00800434 	movhi	r2,16
   817e4:	10892004 	addi	r2,r2,9344
   817e8:	10c00035 	stwio	r3,0(r2)

		buffer[0] = 0xAA;
   817ec:	00bfea84 	movi	r2,-86
   817f0:	d0a7f405 	stb	r2,-24624(gp)
		buffer[1] = 0xBB;
   817f4:	00bfeec4 	movi	r2,-69
   817f8:	d0a7f445 	stb	r2,-24623(gp)
		buffer[2] = 0xCC;
   817fc:	00bff304 	movi	r2,-52
   81800:	d0a7f485 	stb	r2,-24622(gp)
		buffer[3] = 0xDD;
   81804:	00bff744 	movi	r2,-35
   81808:	d0a7f4c5 	stb	r2,-24621(gp)
		buffer[4] = 0xEE;
   8180c:	00bffb84 	movi	r2,-18
   81810:	d0a7f505 	stb	r2,-24620(gp)

		int transmit = IORD_ALTERA_AVALON_PIO_DATA(SWITCH_BASE); //read the input from the switch
   81814:	00800434 	movhi	r2,16
   81818:	10892804 	addi	r2,r2,9376
   8181c:	10800037 	ldwio	r2,0(r2)
   81820:	e0bffb15 	stw	r2,-20(fp)
		int isConnected = 0;
   81824:	e03ffc15 	stw	zero,-16(fp)

		while(1){
		transmit = IORD_ALTERA_AVALON_PIO_DATA(SWITCH_BASE);
   81828:	00800434 	movhi	r2,16
   8182c:	10892804 	addi	r2,r2,9376
   81830:	10800037 	ldwio	r2,0(r2)
   81834:	e0bffb15 	stw	r2,-20(fp)
		if(transmit){
   81838:	e0bffb17 	ldw	r2,-20(fp)
   8183c:	10002926 	beq	r2,zero,818e4 <main+0x220>
			isConnected = connect(A,IP1, sPort, IP2, dPort);
   81840:	e0bffa17 	ldw	r2,-24(fp)
   81844:	d8800015 	stw	r2,0(sp)
   81848:	e1fff817 	ldw	r7,-32(fp)
   8184c:	e1bff917 	ldw	r6,-28(fp)
   81850:	e17ff717 	ldw	r5,-36(fp)
   81854:	0009883a 	mov	r4,zero
   81858:	0080fbc0 	call	80fbc <connect>
   8185c:	e0bffc15 	stw	r2,-16(fp)
			if(isConnected){
   81860:	e0bffc17 	ldw	r2,-16(fp)
   81864:	103ff026 	beq	r2,zero,81828 <rx_descriptor_end+0xfff817c8>
				int j = 0;
   81868:	e03ff515 	stw	zero,-44(fp)
				while(j < 5){
   8186c:	00001706 	br	818cc <main+0x208>
					int sent = 0;
   81870:	e03fff15 	stw	zero,-4(fp)
					sent = send(A, buffer[j]);
   81874:	e0fff517 	ldw	r3,-44(fp)
   81878:	d0a7f404 	addi	r2,gp,-24624
   8187c:	1885883a 	add	r2,r3,r2
   81880:	10800003 	ldbu	r2,0(r2)
   81884:	10803fcc 	andi	r2,r2,255
   81888:	100b883a 	mov	r5,r2
   8188c:	0009883a 	mov	r4,zero
   81890:	00811d80 	call	811d8 <send>
   81894:	e0bfff15 	stw	r2,-4(fp)
					if(sent){
   81898:	e0bfff17 	ldw	r2,-4(fp)
   8189c:	10000426 	beq	r2,zero,818b0 <main+0x1ec>
						j++;
   818a0:	e0bff517 	ldw	r2,-44(fp)
   818a4:	10800044 	addi	r2,r2,1
   818a8:	e0bff515 	stw	r2,-44(fp)
   818ac:	00000706 	br	818cc <main+0x208>
					}
					else {
						printf("ACK NOT RECEIVED");
   818b0:	01000274 	movhi	r4,9
   818b4:	21082304 	addi	r4,r4,8332
   818b8:	00830800 	call	83080 <printf>
						fflush(stdout);
   818bc:	d0a00217 	ldw	r2,-32760(gp)
   818c0:	10800217 	ldw	r2,8(r2)
   818c4:	1009883a 	mov	r4,r2
   818c8:	0081c0c0 	call	81c0c <fflush>
		transmit = IORD_ALTERA_AVALON_PIO_DATA(SWITCH_BASE);
		if(transmit){
			isConnected = connect(A,IP1, sPort, IP2, dPort);
			if(isConnected){
				int j = 0;
				while(j < 5){
   818cc:	e0bff517 	ldw	r2,-44(fp)
   818d0:	10800150 	cmplti	r2,r2,5
   818d4:	103fe61e 	bne	r2,zero,81870 <rx_descriptor_end+0xfff81810>
						printf("ACK NOT RECEIVED");
						fflush(stdout);
					}

				}
				disconnect(A);
   818d8:	0009883a 	mov	r4,zero
   818dc:	00815700 	call	81570 <disconnect>
   818e0:	003fd106 	br	81828 <rx_descriptor_end+0xfff817c8>
			}
		}
		else {
			int conn = accept(B);
   818e4:	01000044 	movi	r4,1
   818e8:	00813480 	call	81348 <accept>
   818ec:	e0bffd15 	stw	r2,-12(fp)
			if(conn){
   818f0:	e0bffd17 	ldw	r2,-12(fp)
   818f4:	10001f26 	beq	r2,zero,81974 <main+0x2b0>
				printf("Connection Successful");
   818f8:	01000274 	movhi	r4,9
   818fc:	21082804 	addi	r4,r4,8352
   81900:	00830800 	call	83080 <printf>
				fflush(stdout);
   81904:	d0a00217 	ldw	r2,-32760(gp)
   81908:	10800217 	ldw	r2,8(r2)
   8190c:	1009883a 	mov	r4,r2
   81910:	0081c0c0 	call	81c0c <fflush>
				printf("Receiving data");
   81914:	01000274 	movhi	r4,9
   81918:	21082e04 	addi	r4,r4,8376
   8191c:	00830800 	call	83080 <printf>
				fflush(stdout);
   81920:	d0a00217 	ldw	r2,-32760(gp)
   81924:	10800217 	ldw	r2,8(r2)
   81928:	1009883a 	mov	r4,r2
   8192c:	0081c0c0 	call	81c0c <fflush>
				int k = 0;
   81930:	e03ff615 	stw	zero,-40(fp)
				while(k < 5){
   81934:	00000906 	br	8195c <main+0x298>
					int rec = 0;
   81938:	e03ffe15 	stw	zero,-8(fp)
					rec = recv(B);
   8193c:	01000044 	movi	r4,1
   81940:	00814bc0 	call	814bc <recv>
   81944:	e0bffe15 	stw	r2,-8(fp)
					if(rec){
   81948:	e0bffe17 	ldw	r2,-8(fp)
   8194c:	10000326 	beq	r2,zero,8195c <main+0x298>
						k++;
   81950:	e0bff617 	ldw	r2,-40(fp)
   81954:	10800044 	addi	r2,r2,1
   81958:	e0bff615 	stw	r2,-40(fp)
				printf("Connection Successful");
				fflush(stdout);
				printf("Receiving data");
				fflush(stdout);
				int k = 0;
				while(k < 5){
   8195c:	e0bff617 	ldw	r2,-40(fp)
   81960:	10800150 	cmplti	r2,r2,5
   81964:	103ff41e 	bne	r2,zero,81938 <rx_descriptor_end+0xfff818d8>
					rec = recv(B);
					if(rec){
						k++;
					}
				}
				recDisconnect(B);
   81968:	01000044 	movi	r4,1
   8196c:	00816540 	call	81654 <recDisconnect>
   81970:	003fad06 	br	81828 <rx_descriptor_end+0xfff817c8>
			}
			else{
				printf("Connection Failed at Receiver");
   81974:	01000274 	movhi	r4,9
   81978:	21083204 	addi	r4,r4,8392
   8197c:	00830800 	call	83080 <printf>
				fflush(stdout);
   81980:	d0a00217 	ldw	r2,-32760(gp)
   81984:	10800217 	ldw	r2,8(r2)
   81988:	1009883a 	mov	r4,r2
   8198c:	0081c0c0 	call	81c0c <fflush>
			}
		}
	}
   81990:	003fa506 	br	81828 <rx_descriptor_end+0xfff817c8>

00081994 <__sflush_r>:
   81994:	2880030b 	ldhu	r2,12(r5)
   81998:	defffb04 	addi	sp,sp,-20
   8199c:	dcc00315 	stw	r19,12(sp)
   819a0:	dc400115 	stw	r17,4(sp)
   819a4:	dfc00415 	stw	ra,16(sp)
   819a8:	dc800215 	stw	r18,8(sp)
   819ac:	dc000015 	stw	r16,0(sp)
   819b0:	10c0020c 	andi	r3,r2,8
   819b4:	2823883a 	mov	r17,r5
   819b8:	2027883a 	mov	r19,r4
   819bc:	1800311e 	bne	r3,zero,81a84 <__sflush_r+0xf0>
   819c0:	28c00117 	ldw	r3,4(r5)
   819c4:	10820014 	ori	r2,r2,2048
   819c8:	2880030d 	sth	r2,12(r5)
   819cc:	00c04b0e 	bge	zero,r3,81afc <__sflush_r+0x168>
   819d0:	8a000a17 	ldw	r8,40(r17)
   819d4:	40002326 	beq	r8,zero,81a64 <__sflush_r+0xd0>
   819d8:	9c000017 	ldw	r16,0(r19)
   819dc:	10c4000c 	andi	r3,r2,4096
   819e0:	98000015 	stw	zero,0(r19)
   819e4:	18004826 	beq	r3,zero,81b08 <__sflush_r+0x174>
   819e8:	89801417 	ldw	r6,80(r17)
   819ec:	10c0010c 	andi	r3,r2,4
   819f0:	18000626 	beq	r3,zero,81a0c <__sflush_r+0x78>
   819f4:	88c00117 	ldw	r3,4(r17)
   819f8:	88800c17 	ldw	r2,48(r17)
   819fc:	30cdc83a 	sub	r6,r6,r3
   81a00:	10000226 	beq	r2,zero,81a0c <__sflush_r+0x78>
   81a04:	88800f17 	ldw	r2,60(r17)
   81a08:	308dc83a 	sub	r6,r6,r2
   81a0c:	89400717 	ldw	r5,28(r17)
   81a10:	000f883a 	mov	r7,zero
   81a14:	9809883a 	mov	r4,r19
   81a18:	403ee83a 	callr	r8
   81a1c:	00ffffc4 	movi	r3,-1
   81a20:	10c04426 	beq	r2,r3,81b34 <__sflush_r+0x1a0>
   81a24:	88c0030b 	ldhu	r3,12(r17)
   81a28:	89000417 	ldw	r4,16(r17)
   81a2c:	88000115 	stw	zero,4(r17)
   81a30:	197dffcc 	andi	r5,r3,63487
   81a34:	8940030d 	sth	r5,12(r17)
   81a38:	89000015 	stw	r4,0(r17)
   81a3c:	18c4000c 	andi	r3,r3,4096
   81a40:	18002c1e 	bne	r3,zero,81af4 <__sflush_r+0x160>
   81a44:	89400c17 	ldw	r5,48(r17)
   81a48:	9c000015 	stw	r16,0(r19)
   81a4c:	28000526 	beq	r5,zero,81a64 <__sflush_r+0xd0>
   81a50:	88801004 	addi	r2,r17,64
   81a54:	28800226 	beq	r5,r2,81a60 <__sflush_r+0xcc>
   81a58:	9809883a 	mov	r4,r19
   81a5c:	00821000 	call	82100 <_free_r>
   81a60:	88000c15 	stw	zero,48(r17)
   81a64:	0005883a 	mov	r2,zero
   81a68:	dfc00417 	ldw	ra,16(sp)
   81a6c:	dcc00317 	ldw	r19,12(sp)
   81a70:	dc800217 	ldw	r18,8(sp)
   81a74:	dc400117 	ldw	r17,4(sp)
   81a78:	dc000017 	ldw	r16,0(sp)
   81a7c:	dec00504 	addi	sp,sp,20
   81a80:	f800283a 	ret
   81a84:	2c800417 	ldw	r18,16(r5)
   81a88:	903ff626 	beq	r18,zero,81a64 <rx_descriptor_end+0xfff81a04>
   81a8c:	2c000017 	ldw	r16,0(r5)
   81a90:	108000cc 	andi	r2,r2,3
   81a94:	2c800015 	stw	r18,0(r5)
   81a98:	84a1c83a 	sub	r16,r16,r18
   81a9c:	1000131e 	bne	r2,zero,81aec <__sflush_r+0x158>
   81aa0:	28800517 	ldw	r2,20(r5)
   81aa4:	88800215 	stw	r2,8(r17)
   81aa8:	04000316 	blt	zero,r16,81ab8 <__sflush_r+0x124>
   81aac:	003fed06 	br	81a64 <rx_descriptor_end+0xfff81a04>
   81ab0:	90a5883a 	add	r18,r18,r2
   81ab4:	043feb0e 	bge	zero,r16,81a64 <rx_descriptor_end+0xfff81a04>
   81ab8:	88800917 	ldw	r2,36(r17)
   81abc:	89400717 	ldw	r5,28(r17)
   81ac0:	800f883a 	mov	r7,r16
   81ac4:	900d883a 	mov	r6,r18
   81ac8:	9809883a 	mov	r4,r19
   81acc:	103ee83a 	callr	r2
   81ad0:	80a1c83a 	sub	r16,r16,r2
   81ad4:	00bff616 	blt	zero,r2,81ab0 <rx_descriptor_end+0xfff81a50>
   81ad8:	88c0030b 	ldhu	r3,12(r17)
   81adc:	00bfffc4 	movi	r2,-1
   81ae0:	18c01014 	ori	r3,r3,64
   81ae4:	88c0030d 	sth	r3,12(r17)
   81ae8:	003fdf06 	br	81a68 <rx_descriptor_end+0xfff81a08>
   81aec:	0005883a 	mov	r2,zero
   81af0:	003fec06 	br	81aa4 <rx_descriptor_end+0xfff81a44>
   81af4:	88801415 	stw	r2,80(r17)
   81af8:	003fd206 	br	81a44 <rx_descriptor_end+0xfff819e4>
   81afc:	28c00f17 	ldw	r3,60(r5)
   81b00:	00ffb316 	blt	zero,r3,819d0 <rx_descriptor_end+0xfff81970>
   81b04:	003fd706 	br	81a64 <rx_descriptor_end+0xfff81a04>
   81b08:	89400717 	ldw	r5,28(r17)
   81b0c:	000d883a 	mov	r6,zero
   81b10:	01c00044 	movi	r7,1
   81b14:	9809883a 	mov	r4,r19
   81b18:	403ee83a 	callr	r8
   81b1c:	100d883a 	mov	r6,r2
   81b20:	00bfffc4 	movi	r2,-1
   81b24:	30801426 	beq	r6,r2,81b78 <__sflush_r+0x1e4>
   81b28:	8880030b 	ldhu	r2,12(r17)
   81b2c:	8a000a17 	ldw	r8,40(r17)
   81b30:	003fae06 	br	819ec <rx_descriptor_end+0xfff8198c>
   81b34:	98c00017 	ldw	r3,0(r19)
   81b38:	183fba26 	beq	r3,zero,81a24 <rx_descriptor_end+0xfff819c4>
   81b3c:	01000744 	movi	r4,29
   81b40:	19000626 	beq	r3,r4,81b5c <__sflush_r+0x1c8>
   81b44:	01000584 	movi	r4,22
   81b48:	19000426 	beq	r3,r4,81b5c <__sflush_r+0x1c8>
   81b4c:	88c0030b 	ldhu	r3,12(r17)
   81b50:	18c01014 	ori	r3,r3,64
   81b54:	88c0030d 	sth	r3,12(r17)
   81b58:	003fc306 	br	81a68 <rx_descriptor_end+0xfff81a08>
   81b5c:	8880030b 	ldhu	r2,12(r17)
   81b60:	88c00417 	ldw	r3,16(r17)
   81b64:	88000115 	stw	zero,4(r17)
   81b68:	10bdffcc 	andi	r2,r2,63487
   81b6c:	8880030d 	sth	r2,12(r17)
   81b70:	88c00015 	stw	r3,0(r17)
   81b74:	003fb306 	br	81a44 <rx_descriptor_end+0xfff819e4>
   81b78:	98800017 	ldw	r2,0(r19)
   81b7c:	103fea26 	beq	r2,zero,81b28 <rx_descriptor_end+0xfff81ac8>
   81b80:	00c00744 	movi	r3,29
   81b84:	10c00226 	beq	r2,r3,81b90 <__sflush_r+0x1fc>
   81b88:	00c00584 	movi	r3,22
   81b8c:	10c0031e 	bne	r2,r3,81b9c <__sflush_r+0x208>
   81b90:	9c000015 	stw	r16,0(r19)
   81b94:	0005883a 	mov	r2,zero
   81b98:	003fb306 	br	81a68 <rx_descriptor_end+0xfff81a08>
   81b9c:	88c0030b 	ldhu	r3,12(r17)
   81ba0:	3005883a 	mov	r2,r6
   81ba4:	18c01014 	ori	r3,r3,64
   81ba8:	88c0030d 	sth	r3,12(r17)
   81bac:	003fae06 	br	81a68 <rx_descriptor_end+0xfff81a08>

00081bb0 <_fflush_r>:
   81bb0:	defffd04 	addi	sp,sp,-12
   81bb4:	dc000115 	stw	r16,4(sp)
   81bb8:	dfc00215 	stw	ra,8(sp)
   81bbc:	2021883a 	mov	r16,r4
   81bc0:	20000226 	beq	r4,zero,81bcc <_fflush_r+0x1c>
   81bc4:	20800e17 	ldw	r2,56(r4)
   81bc8:	10000c26 	beq	r2,zero,81bfc <_fflush_r+0x4c>
   81bcc:	2880030f 	ldh	r2,12(r5)
   81bd0:	1000051e 	bne	r2,zero,81be8 <_fflush_r+0x38>
   81bd4:	0005883a 	mov	r2,zero
   81bd8:	dfc00217 	ldw	ra,8(sp)
   81bdc:	dc000117 	ldw	r16,4(sp)
   81be0:	dec00304 	addi	sp,sp,12
   81be4:	f800283a 	ret
   81be8:	8009883a 	mov	r4,r16
   81bec:	dfc00217 	ldw	ra,8(sp)
   81bf0:	dc000117 	ldw	r16,4(sp)
   81bf4:	dec00304 	addi	sp,sp,12
   81bf8:	00819941 	jmpi	81994 <__sflush_r>
   81bfc:	d9400015 	stw	r5,0(sp)
   81c00:	0081f8c0 	call	81f8c <__sinit>
   81c04:	d9400017 	ldw	r5,0(sp)
   81c08:	003ff006 	br	81bcc <rx_descriptor_end+0xfff81b6c>

00081c0c <fflush>:
   81c0c:	20000526 	beq	r4,zero,81c24 <fflush+0x18>
   81c10:	00800274 	movhi	r2,9
   81c14:	1090c504 	addi	r2,r2,17172
   81c18:	200b883a 	mov	r5,r4
   81c1c:	11000017 	ldw	r4,0(r2)
   81c20:	0081bb01 	jmpi	81bb0 <_fflush_r>
   81c24:	00800274 	movhi	r2,9
   81c28:	1090c404 	addi	r2,r2,17168
   81c2c:	11000017 	ldw	r4,0(r2)
   81c30:	01400234 	movhi	r5,8
   81c34:	2946ec04 	addi	r5,r5,7088
   81c38:	00824d41 	jmpi	824d4 <_fwalk_reent>

00081c3c <__fp_unlock>:
   81c3c:	0005883a 	mov	r2,zero
   81c40:	f800283a 	ret

00081c44 <_cleanup_r>:
   81c44:	01400234 	movhi	r5,8
   81c48:	295c4e04 	addi	r5,r5,28984
   81c4c:	00824d41 	jmpi	824d4 <_fwalk_reent>

00081c50 <__sinit.part.1>:
   81c50:	defff704 	addi	sp,sp,-36
   81c54:	00c00234 	movhi	r3,8
   81c58:	dfc00815 	stw	ra,32(sp)
   81c5c:	ddc00715 	stw	r23,28(sp)
   81c60:	dd800615 	stw	r22,24(sp)
   81c64:	dd400515 	stw	r21,20(sp)
   81c68:	dd000415 	stw	r20,16(sp)
   81c6c:	dcc00315 	stw	r19,12(sp)
   81c70:	dc800215 	stw	r18,8(sp)
   81c74:	dc400115 	stw	r17,4(sp)
   81c78:	dc000015 	stw	r16,0(sp)
   81c7c:	18c71104 	addi	r3,r3,7236
   81c80:	24000117 	ldw	r16,4(r4)
   81c84:	20c00f15 	stw	r3,60(r4)
   81c88:	2080bb04 	addi	r2,r4,748
   81c8c:	00c000c4 	movi	r3,3
   81c90:	20c0b915 	stw	r3,740(r4)
   81c94:	2080ba15 	stw	r2,744(r4)
   81c98:	2000b815 	stw	zero,736(r4)
   81c9c:	05c00204 	movi	r23,8
   81ca0:	00800104 	movi	r2,4
   81ca4:	2025883a 	mov	r18,r4
   81ca8:	b80d883a 	mov	r6,r23
   81cac:	81001704 	addi	r4,r16,92
   81cb0:	000b883a 	mov	r5,zero
   81cb4:	80000015 	stw	zero,0(r16)
   81cb8:	80000115 	stw	zero,4(r16)
   81cbc:	80000215 	stw	zero,8(r16)
   81cc0:	8080030d 	sth	r2,12(r16)
   81cc4:	80001915 	stw	zero,100(r16)
   81cc8:	8000038d 	sth	zero,14(r16)
   81ccc:	80000415 	stw	zero,16(r16)
   81cd0:	80000515 	stw	zero,20(r16)
   81cd4:	80000615 	stw	zero,24(r16)
   81cd8:	0082f280 	call	82f28 <memset>
   81cdc:	05800234 	movhi	r22,8
   81ce0:	94400217 	ldw	r17,8(r18)
   81ce4:	05400234 	movhi	r21,8
   81ce8:	05000234 	movhi	r20,8
   81cec:	04c00234 	movhi	r19,8
   81cf0:	b58c8104 	addi	r22,r22,12804
   81cf4:	ad4c9804 	addi	r21,r21,12896
   81cf8:	a50cb704 	addi	r20,r20,13020
   81cfc:	9cccce04 	addi	r19,r19,13112
   81d00:	85800815 	stw	r22,32(r16)
   81d04:	85400915 	stw	r21,36(r16)
   81d08:	85000a15 	stw	r20,40(r16)
   81d0c:	84c00b15 	stw	r19,44(r16)
   81d10:	84000715 	stw	r16,28(r16)
   81d14:	00800284 	movi	r2,10
   81d18:	8880030d 	sth	r2,12(r17)
   81d1c:	00800044 	movi	r2,1
   81d20:	b80d883a 	mov	r6,r23
   81d24:	89001704 	addi	r4,r17,92
   81d28:	000b883a 	mov	r5,zero
   81d2c:	88000015 	stw	zero,0(r17)
   81d30:	88000115 	stw	zero,4(r17)
   81d34:	88000215 	stw	zero,8(r17)
   81d38:	88001915 	stw	zero,100(r17)
   81d3c:	8880038d 	sth	r2,14(r17)
   81d40:	88000415 	stw	zero,16(r17)
   81d44:	88000515 	stw	zero,20(r17)
   81d48:	88000615 	stw	zero,24(r17)
   81d4c:	0082f280 	call	82f28 <memset>
   81d50:	94000317 	ldw	r16,12(r18)
   81d54:	00800484 	movi	r2,18
   81d58:	8c400715 	stw	r17,28(r17)
   81d5c:	8d800815 	stw	r22,32(r17)
   81d60:	8d400915 	stw	r21,36(r17)
   81d64:	8d000a15 	stw	r20,40(r17)
   81d68:	8cc00b15 	stw	r19,44(r17)
   81d6c:	8080030d 	sth	r2,12(r16)
   81d70:	00800084 	movi	r2,2
   81d74:	80000015 	stw	zero,0(r16)
   81d78:	80000115 	stw	zero,4(r16)
   81d7c:	80000215 	stw	zero,8(r16)
   81d80:	80001915 	stw	zero,100(r16)
   81d84:	8080038d 	sth	r2,14(r16)
   81d88:	80000415 	stw	zero,16(r16)
   81d8c:	80000515 	stw	zero,20(r16)
   81d90:	80000615 	stw	zero,24(r16)
   81d94:	b80d883a 	mov	r6,r23
   81d98:	000b883a 	mov	r5,zero
   81d9c:	81001704 	addi	r4,r16,92
   81da0:	0082f280 	call	82f28 <memset>
   81da4:	00800044 	movi	r2,1
   81da8:	84000715 	stw	r16,28(r16)
   81dac:	85800815 	stw	r22,32(r16)
   81db0:	85400915 	stw	r21,36(r16)
   81db4:	85000a15 	stw	r20,40(r16)
   81db8:	84c00b15 	stw	r19,44(r16)
   81dbc:	90800e15 	stw	r2,56(r18)
   81dc0:	dfc00817 	ldw	ra,32(sp)
   81dc4:	ddc00717 	ldw	r23,28(sp)
   81dc8:	dd800617 	ldw	r22,24(sp)
   81dcc:	dd400517 	ldw	r21,20(sp)
   81dd0:	dd000417 	ldw	r20,16(sp)
   81dd4:	dcc00317 	ldw	r19,12(sp)
   81dd8:	dc800217 	ldw	r18,8(sp)
   81ddc:	dc400117 	ldw	r17,4(sp)
   81de0:	dc000017 	ldw	r16,0(sp)
   81de4:	dec00904 	addi	sp,sp,36
   81de8:	f800283a 	ret

00081dec <__fp_lock>:
   81dec:	0005883a 	mov	r2,zero
   81df0:	f800283a 	ret

00081df4 <__sfmoreglue>:
   81df4:	defffc04 	addi	sp,sp,-16
   81df8:	dc400115 	stw	r17,4(sp)
   81dfc:	2c7fffc4 	addi	r17,r5,-1
   81e00:	8c401a24 	muli	r17,r17,104
   81e04:	dc800215 	stw	r18,8(sp)
   81e08:	2825883a 	mov	r18,r5
   81e0c:	89401d04 	addi	r5,r17,116
   81e10:	dc000015 	stw	r16,0(sp)
   81e14:	dfc00315 	stw	ra,12(sp)
   81e18:	00825c00 	call	825c0 <_malloc_r>
   81e1c:	1021883a 	mov	r16,r2
   81e20:	10000726 	beq	r2,zero,81e40 <__sfmoreglue+0x4c>
   81e24:	11000304 	addi	r4,r2,12
   81e28:	10000015 	stw	zero,0(r2)
   81e2c:	14800115 	stw	r18,4(r2)
   81e30:	11000215 	stw	r4,8(r2)
   81e34:	89801a04 	addi	r6,r17,104
   81e38:	000b883a 	mov	r5,zero
   81e3c:	0082f280 	call	82f28 <memset>
   81e40:	8005883a 	mov	r2,r16
   81e44:	dfc00317 	ldw	ra,12(sp)
   81e48:	dc800217 	ldw	r18,8(sp)
   81e4c:	dc400117 	ldw	r17,4(sp)
   81e50:	dc000017 	ldw	r16,0(sp)
   81e54:	dec00404 	addi	sp,sp,16
   81e58:	f800283a 	ret

00081e5c <__sfp>:
   81e5c:	defffb04 	addi	sp,sp,-20
   81e60:	dc000015 	stw	r16,0(sp)
   81e64:	04000274 	movhi	r16,9
   81e68:	8410c404 	addi	r16,r16,17168
   81e6c:	dcc00315 	stw	r19,12(sp)
   81e70:	2027883a 	mov	r19,r4
   81e74:	81000017 	ldw	r4,0(r16)
   81e78:	dfc00415 	stw	ra,16(sp)
   81e7c:	dc800215 	stw	r18,8(sp)
   81e80:	20800e17 	ldw	r2,56(r4)
   81e84:	dc400115 	stw	r17,4(sp)
   81e88:	1000021e 	bne	r2,zero,81e94 <__sfp+0x38>
   81e8c:	0081c500 	call	81c50 <__sinit.part.1>
   81e90:	81000017 	ldw	r4,0(r16)
   81e94:	2480b804 	addi	r18,r4,736
   81e98:	047fffc4 	movi	r17,-1
   81e9c:	91000117 	ldw	r4,4(r18)
   81ea0:	94000217 	ldw	r16,8(r18)
   81ea4:	213fffc4 	addi	r4,r4,-1
   81ea8:	20000a16 	blt	r4,zero,81ed4 <__sfp+0x78>
   81eac:	8080030f 	ldh	r2,12(r16)
   81eb0:	10000c26 	beq	r2,zero,81ee4 <__sfp+0x88>
   81eb4:	80c01d04 	addi	r3,r16,116
   81eb8:	00000206 	br	81ec4 <__sfp+0x68>
   81ebc:	18bfe60f 	ldh	r2,-104(r3)
   81ec0:	10000826 	beq	r2,zero,81ee4 <__sfp+0x88>
   81ec4:	213fffc4 	addi	r4,r4,-1
   81ec8:	1c3ffd04 	addi	r16,r3,-12
   81ecc:	18c01a04 	addi	r3,r3,104
   81ed0:	247ffa1e 	bne	r4,r17,81ebc <rx_descriptor_end+0xfff81e5c>
   81ed4:	90800017 	ldw	r2,0(r18)
   81ed8:	10001d26 	beq	r2,zero,81f50 <__sfp+0xf4>
   81edc:	1025883a 	mov	r18,r2
   81ee0:	003fee06 	br	81e9c <rx_descriptor_end+0xfff81e3c>
   81ee4:	00bfffc4 	movi	r2,-1
   81ee8:	8080038d 	sth	r2,14(r16)
   81eec:	00800044 	movi	r2,1
   81ef0:	8080030d 	sth	r2,12(r16)
   81ef4:	80001915 	stw	zero,100(r16)
   81ef8:	80000015 	stw	zero,0(r16)
   81efc:	80000215 	stw	zero,8(r16)
   81f00:	80000115 	stw	zero,4(r16)
   81f04:	80000415 	stw	zero,16(r16)
   81f08:	80000515 	stw	zero,20(r16)
   81f0c:	80000615 	stw	zero,24(r16)
   81f10:	01800204 	movi	r6,8
   81f14:	000b883a 	mov	r5,zero
   81f18:	81001704 	addi	r4,r16,92
   81f1c:	0082f280 	call	82f28 <memset>
   81f20:	8005883a 	mov	r2,r16
   81f24:	80000c15 	stw	zero,48(r16)
   81f28:	80000d15 	stw	zero,52(r16)
   81f2c:	80001115 	stw	zero,68(r16)
   81f30:	80001215 	stw	zero,72(r16)
   81f34:	dfc00417 	ldw	ra,16(sp)
   81f38:	dcc00317 	ldw	r19,12(sp)
   81f3c:	dc800217 	ldw	r18,8(sp)
   81f40:	dc400117 	ldw	r17,4(sp)
   81f44:	dc000017 	ldw	r16,0(sp)
   81f48:	dec00504 	addi	sp,sp,20
   81f4c:	f800283a 	ret
   81f50:	01400104 	movi	r5,4
   81f54:	9809883a 	mov	r4,r19
   81f58:	0081df40 	call	81df4 <__sfmoreglue>
   81f5c:	90800015 	stw	r2,0(r18)
   81f60:	103fde1e 	bne	r2,zero,81edc <rx_descriptor_end+0xfff81e7c>
   81f64:	00800304 	movi	r2,12
   81f68:	98800015 	stw	r2,0(r19)
   81f6c:	0005883a 	mov	r2,zero
   81f70:	003ff006 	br	81f34 <rx_descriptor_end+0xfff81ed4>

00081f74 <_cleanup>:
   81f74:	00800274 	movhi	r2,9
   81f78:	1090c404 	addi	r2,r2,17168
   81f7c:	11000017 	ldw	r4,0(r2)
   81f80:	01400234 	movhi	r5,8
   81f84:	295c4e04 	addi	r5,r5,28984
   81f88:	00824d41 	jmpi	824d4 <_fwalk_reent>

00081f8c <__sinit>:
   81f8c:	20800e17 	ldw	r2,56(r4)
   81f90:	10000126 	beq	r2,zero,81f98 <__sinit+0xc>
   81f94:	f800283a 	ret
   81f98:	0081c501 	jmpi	81c50 <__sinit.part.1>

00081f9c <__sfp_lock_acquire>:
   81f9c:	f800283a 	ret

00081fa0 <__sfp_lock_release>:
   81fa0:	f800283a 	ret

00081fa4 <__sinit_lock_acquire>:
   81fa4:	f800283a 	ret

00081fa8 <__sinit_lock_release>:
   81fa8:	f800283a 	ret

00081fac <__fp_lock_all>:
   81fac:	00800274 	movhi	r2,9
   81fb0:	1090c504 	addi	r2,r2,17172
   81fb4:	11000017 	ldw	r4,0(r2)
   81fb8:	01400234 	movhi	r5,8
   81fbc:	29477b04 	addi	r5,r5,7660
   81fc0:	00824101 	jmpi	82410 <_fwalk>

00081fc4 <__fp_unlock_all>:
   81fc4:	00800274 	movhi	r2,9
   81fc8:	1090c504 	addi	r2,r2,17172
   81fcc:	11000017 	ldw	r4,0(r2)
   81fd0:	01400234 	movhi	r5,8
   81fd4:	29470f04 	addi	r5,r5,7228
   81fd8:	00824101 	jmpi	82410 <_fwalk>

00081fdc <_malloc_trim_r>:
   81fdc:	defffb04 	addi	sp,sp,-20
   81fe0:	dcc00315 	stw	r19,12(sp)
   81fe4:	04c00274 	movhi	r19,9
   81fe8:	dc800215 	stw	r18,8(sp)
   81fec:	dc400115 	stw	r17,4(sp)
   81ff0:	dc000015 	stw	r16,0(sp)
   81ff4:	dfc00415 	stw	ra,16(sp)
   81ff8:	2821883a 	mov	r16,r5
   81ffc:	9ccb0904 	addi	r19,r19,11300
   82000:	2025883a 	mov	r18,r4
   82004:	008ea280 	call	8ea28 <__malloc_lock>
   82008:	98800217 	ldw	r2,8(r19)
   8200c:	14400117 	ldw	r17,4(r2)
   82010:	00bfff04 	movi	r2,-4
   82014:	88a2703a 	and	r17,r17,r2
   82018:	8c21c83a 	sub	r16,r17,r16
   8201c:	8403fbc4 	addi	r16,r16,4079
   82020:	8020d33a 	srli	r16,r16,12
   82024:	0083ffc4 	movi	r2,4095
   82028:	843fffc4 	addi	r16,r16,-1
   8202c:	8020933a 	slli	r16,r16,12
   82030:	1400060e 	bge	r2,r16,8204c <_malloc_trim_r+0x70>
   82034:	000b883a 	mov	r5,zero
   82038:	9009883a 	mov	r4,r18
   8203c:	00831b00 	call	831b0 <_sbrk_r>
   82040:	98c00217 	ldw	r3,8(r19)
   82044:	1c47883a 	add	r3,r3,r17
   82048:	10c00a26 	beq	r2,r3,82074 <_malloc_trim_r+0x98>
   8204c:	9009883a 	mov	r4,r18
   82050:	008ea4c0 	call	8ea4c <__malloc_unlock>
   82054:	0005883a 	mov	r2,zero
   82058:	dfc00417 	ldw	ra,16(sp)
   8205c:	dcc00317 	ldw	r19,12(sp)
   82060:	dc800217 	ldw	r18,8(sp)
   82064:	dc400117 	ldw	r17,4(sp)
   82068:	dc000017 	ldw	r16,0(sp)
   8206c:	dec00504 	addi	sp,sp,20
   82070:	f800283a 	ret
   82074:	040bc83a 	sub	r5,zero,r16
   82078:	9009883a 	mov	r4,r18
   8207c:	00831b00 	call	831b0 <_sbrk_r>
   82080:	00ffffc4 	movi	r3,-1
   82084:	10c00d26 	beq	r2,r3,820bc <_malloc_trim_r+0xe0>
   82088:	00c00274 	movhi	r3,9
   8208c:	18d9c804 	addi	r3,r3,26400
   82090:	18800017 	ldw	r2,0(r3)
   82094:	99000217 	ldw	r4,8(r19)
   82098:	8c23c83a 	sub	r17,r17,r16
   8209c:	8c400054 	ori	r17,r17,1
   820a0:	1421c83a 	sub	r16,r2,r16
   820a4:	24400115 	stw	r17,4(r4)
   820a8:	9009883a 	mov	r4,r18
   820ac:	1c000015 	stw	r16,0(r3)
   820b0:	008ea4c0 	call	8ea4c <__malloc_unlock>
   820b4:	00800044 	movi	r2,1
   820b8:	003fe706 	br	82058 <rx_descriptor_end+0xfff81ff8>
   820bc:	000b883a 	mov	r5,zero
   820c0:	9009883a 	mov	r4,r18
   820c4:	00831b00 	call	831b0 <_sbrk_r>
   820c8:	99000217 	ldw	r4,8(r19)
   820cc:	014003c4 	movi	r5,15
   820d0:	1107c83a 	sub	r3,r2,r4
   820d4:	28ffdd0e 	bge	r5,r3,8204c <rx_descriptor_end+0xfff81fec>
   820d8:	01400274 	movhi	r5,9
   820dc:	2950c604 	addi	r5,r5,17176
   820e0:	29400017 	ldw	r5,0(r5)
   820e4:	18c00054 	ori	r3,r3,1
   820e8:	20c00115 	stw	r3,4(r4)
   820ec:	00c00274 	movhi	r3,9
   820f0:	1145c83a 	sub	r2,r2,r5
   820f4:	18d9c804 	addi	r3,r3,26400
   820f8:	18800015 	stw	r2,0(r3)
   820fc:	003fd306 	br	8204c <rx_descriptor_end+0xfff81fec>

00082100 <_free_r>:
   82100:	28004126 	beq	r5,zero,82208 <_free_r+0x108>
   82104:	defffd04 	addi	sp,sp,-12
   82108:	dc400115 	stw	r17,4(sp)
   8210c:	dc000015 	stw	r16,0(sp)
   82110:	2023883a 	mov	r17,r4
   82114:	2821883a 	mov	r16,r5
   82118:	dfc00215 	stw	ra,8(sp)
   8211c:	008ea280 	call	8ea28 <__malloc_lock>
   82120:	81ffff17 	ldw	r7,-4(r16)
   82124:	00bfff84 	movi	r2,-2
   82128:	01000274 	movhi	r4,9
   8212c:	81bffe04 	addi	r6,r16,-8
   82130:	3884703a 	and	r2,r7,r2
   82134:	210b0904 	addi	r4,r4,11300
   82138:	308b883a 	add	r5,r6,r2
   8213c:	2a400117 	ldw	r9,4(r5)
   82140:	22000217 	ldw	r8,8(r4)
   82144:	00ffff04 	movi	r3,-4
   82148:	48c6703a 	and	r3,r9,r3
   8214c:	2a005726 	beq	r5,r8,822ac <_free_r+0x1ac>
   82150:	28c00115 	stw	r3,4(r5)
   82154:	39c0004c 	andi	r7,r7,1
   82158:	3800091e 	bne	r7,zero,82180 <_free_r+0x80>
   8215c:	823ffe17 	ldw	r8,-8(r16)
   82160:	22400204 	addi	r9,r4,8
   82164:	320dc83a 	sub	r6,r6,r8
   82168:	31c00217 	ldw	r7,8(r6)
   8216c:	1205883a 	add	r2,r2,r8
   82170:	3a406526 	beq	r7,r9,82308 <_free_r+0x208>
   82174:	32000317 	ldw	r8,12(r6)
   82178:	3a000315 	stw	r8,12(r7)
   8217c:	41c00215 	stw	r7,8(r8)
   82180:	28cf883a 	add	r7,r5,r3
   82184:	39c00117 	ldw	r7,4(r7)
   82188:	39c0004c 	andi	r7,r7,1
   8218c:	38003a26 	beq	r7,zero,82278 <_free_r+0x178>
   82190:	10c00054 	ori	r3,r2,1
   82194:	30c00115 	stw	r3,4(r6)
   82198:	3087883a 	add	r3,r6,r2
   8219c:	18800015 	stw	r2,0(r3)
   821a0:	00c07fc4 	movi	r3,511
   821a4:	18801936 	bltu	r3,r2,8220c <_free_r+0x10c>
   821a8:	1004d0fa 	srli	r2,r2,3
   821ac:	01c00044 	movi	r7,1
   821b0:	21400117 	ldw	r5,4(r4)
   821b4:	10c00044 	addi	r3,r2,1
   821b8:	18c7883a 	add	r3,r3,r3
   821bc:	1005d0ba 	srai	r2,r2,2
   821c0:	18c7883a 	add	r3,r3,r3
   821c4:	18c7883a 	add	r3,r3,r3
   821c8:	1907883a 	add	r3,r3,r4
   821cc:	3884983a 	sll	r2,r7,r2
   821d0:	19c00017 	ldw	r7,0(r3)
   821d4:	1a3ffe04 	addi	r8,r3,-8
   821d8:	1144b03a 	or	r2,r2,r5
   821dc:	32000315 	stw	r8,12(r6)
   821e0:	31c00215 	stw	r7,8(r6)
   821e4:	20800115 	stw	r2,4(r4)
   821e8:	19800015 	stw	r6,0(r3)
   821ec:	39800315 	stw	r6,12(r7)
   821f0:	8809883a 	mov	r4,r17
   821f4:	dfc00217 	ldw	ra,8(sp)
   821f8:	dc400117 	ldw	r17,4(sp)
   821fc:	dc000017 	ldw	r16,0(sp)
   82200:	dec00304 	addi	sp,sp,12
   82204:	008ea4c1 	jmpi	8ea4c <__malloc_unlock>
   82208:	f800283a 	ret
   8220c:	100ad27a 	srli	r5,r2,9
   82210:	00c00104 	movi	r3,4
   82214:	19404a36 	bltu	r3,r5,82340 <_free_r+0x240>
   82218:	100ad1ba 	srli	r5,r2,6
   8221c:	28c00e44 	addi	r3,r5,57
   82220:	18c7883a 	add	r3,r3,r3
   82224:	29400e04 	addi	r5,r5,56
   82228:	18c7883a 	add	r3,r3,r3
   8222c:	18c7883a 	add	r3,r3,r3
   82230:	1909883a 	add	r4,r3,r4
   82234:	20c00017 	ldw	r3,0(r4)
   82238:	01c00274 	movhi	r7,9
   8223c:	213ffe04 	addi	r4,r4,-8
   82240:	39cb0904 	addi	r7,r7,11300
   82244:	20c04426 	beq	r4,r3,82358 <_free_r+0x258>
   82248:	01ffff04 	movi	r7,-4
   8224c:	19400117 	ldw	r5,4(r3)
   82250:	29ca703a 	and	r5,r5,r7
   82254:	1140022e 	bgeu	r2,r5,82260 <_free_r+0x160>
   82258:	18c00217 	ldw	r3,8(r3)
   8225c:	20fffb1e 	bne	r4,r3,8224c <rx_descriptor_end+0xfff821ec>
   82260:	19000317 	ldw	r4,12(r3)
   82264:	31000315 	stw	r4,12(r6)
   82268:	30c00215 	stw	r3,8(r6)
   8226c:	21800215 	stw	r6,8(r4)
   82270:	19800315 	stw	r6,12(r3)
   82274:	003fde06 	br	821f0 <rx_descriptor_end+0xfff82190>
   82278:	29c00217 	ldw	r7,8(r5)
   8227c:	10c5883a 	add	r2,r2,r3
   82280:	00c00274 	movhi	r3,9
   82284:	18cb0b04 	addi	r3,r3,11308
   82288:	38c03b26 	beq	r7,r3,82378 <_free_r+0x278>
   8228c:	2a000317 	ldw	r8,12(r5)
   82290:	11400054 	ori	r5,r2,1
   82294:	3087883a 	add	r3,r6,r2
   82298:	3a000315 	stw	r8,12(r7)
   8229c:	41c00215 	stw	r7,8(r8)
   822a0:	31400115 	stw	r5,4(r6)
   822a4:	18800015 	stw	r2,0(r3)
   822a8:	003fbd06 	br	821a0 <rx_descriptor_end+0xfff82140>
   822ac:	39c0004c 	andi	r7,r7,1
   822b0:	10c5883a 	add	r2,r2,r3
   822b4:	3800071e 	bne	r7,zero,822d4 <_free_r+0x1d4>
   822b8:	81fffe17 	ldw	r7,-8(r16)
   822bc:	31cdc83a 	sub	r6,r6,r7
   822c0:	30c00317 	ldw	r3,12(r6)
   822c4:	31400217 	ldw	r5,8(r6)
   822c8:	11c5883a 	add	r2,r2,r7
   822cc:	28c00315 	stw	r3,12(r5)
   822d0:	19400215 	stw	r5,8(r3)
   822d4:	10c00054 	ori	r3,r2,1
   822d8:	30c00115 	stw	r3,4(r6)
   822dc:	00c00274 	movhi	r3,9
   822e0:	18d0c704 	addi	r3,r3,17180
   822e4:	18c00017 	ldw	r3,0(r3)
   822e8:	21800215 	stw	r6,8(r4)
   822ec:	10ffc036 	bltu	r2,r3,821f0 <rx_descriptor_end+0xfff82190>
   822f0:	00800274 	movhi	r2,9
   822f4:	1098bc04 	addi	r2,r2,25328
   822f8:	11400017 	ldw	r5,0(r2)
   822fc:	8809883a 	mov	r4,r17
   82300:	0081fdc0 	call	81fdc <_malloc_trim_r>
   82304:	003fba06 	br	821f0 <rx_descriptor_end+0xfff82190>
   82308:	28c9883a 	add	r4,r5,r3
   8230c:	21000117 	ldw	r4,4(r4)
   82310:	2100004c 	andi	r4,r4,1
   82314:	2000391e 	bne	r4,zero,823fc <_free_r+0x2fc>
   82318:	29c00217 	ldw	r7,8(r5)
   8231c:	29000317 	ldw	r4,12(r5)
   82320:	1885883a 	add	r2,r3,r2
   82324:	10c00054 	ori	r3,r2,1
   82328:	39000315 	stw	r4,12(r7)
   8232c:	21c00215 	stw	r7,8(r4)
   82330:	30c00115 	stw	r3,4(r6)
   82334:	308d883a 	add	r6,r6,r2
   82338:	30800015 	stw	r2,0(r6)
   8233c:	003fac06 	br	821f0 <rx_descriptor_end+0xfff82190>
   82340:	00c00504 	movi	r3,20
   82344:	19401536 	bltu	r3,r5,8239c <_free_r+0x29c>
   82348:	28c01704 	addi	r3,r5,92
   8234c:	18c7883a 	add	r3,r3,r3
   82350:	294016c4 	addi	r5,r5,91
   82354:	003fb406 	br	82228 <rx_descriptor_end+0xfff821c8>
   82358:	280bd0ba 	srai	r5,r5,2
   8235c:	00c00044 	movi	r3,1
   82360:	38800117 	ldw	r2,4(r7)
   82364:	194a983a 	sll	r5,r3,r5
   82368:	2007883a 	mov	r3,r4
   8236c:	2884b03a 	or	r2,r5,r2
   82370:	38800115 	stw	r2,4(r7)
   82374:	003fbb06 	br	82264 <rx_descriptor_end+0xfff82204>
   82378:	21800515 	stw	r6,20(r4)
   8237c:	21800415 	stw	r6,16(r4)
   82380:	10c00054 	ori	r3,r2,1
   82384:	31c00315 	stw	r7,12(r6)
   82388:	31c00215 	stw	r7,8(r6)
   8238c:	30c00115 	stw	r3,4(r6)
   82390:	308d883a 	add	r6,r6,r2
   82394:	30800015 	stw	r2,0(r6)
   82398:	003f9506 	br	821f0 <rx_descriptor_end+0xfff82190>
   8239c:	00c01504 	movi	r3,84
   823a0:	19400536 	bltu	r3,r5,823b8 <_free_r+0x2b8>
   823a4:	100ad33a 	srli	r5,r2,12
   823a8:	28c01bc4 	addi	r3,r5,111
   823ac:	18c7883a 	add	r3,r3,r3
   823b0:	29401b84 	addi	r5,r5,110
   823b4:	003f9c06 	br	82228 <rx_descriptor_end+0xfff821c8>
   823b8:	00c05504 	movi	r3,340
   823bc:	19400536 	bltu	r3,r5,823d4 <_free_r+0x2d4>
   823c0:	100ad3fa 	srli	r5,r2,15
   823c4:	28c01e04 	addi	r3,r5,120
   823c8:	18c7883a 	add	r3,r3,r3
   823cc:	29401dc4 	addi	r5,r5,119
   823d0:	003f9506 	br	82228 <rx_descriptor_end+0xfff821c8>
   823d4:	00c15504 	movi	r3,1364
   823d8:	19400536 	bltu	r3,r5,823f0 <_free_r+0x2f0>
   823dc:	100ad4ba 	srli	r5,r2,18
   823e0:	28c01f44 	addi	r3,r5,125
   823e4:	18c7883a 	add	r3,r3,r3
   823e8:	29401f04 	addi	r5,r5,124
   823ec:	003f8e06 	br	82228 <rx_descriptor_end+0xfff821c8>
   823f0:	00c03f84 	movi	r3,254
   823f4:	01401f84 	movi	r5,126
   823f8:	003f8b06 	br	82228 <rx_descriptor_end+0xfff821c8>
   823fc:	10c00054 	ori	r3,r2,1
   82400:	30c00115 	stw	r3,4(r6)
   82404:	308d883a 	add	r6,r6,r2
   82408:	30800015 	stw	r2,0(r6)
   8240c:	003f7806 	br	821f0 <rx_descriptor_end+0xfff82190>

00082410 <_fwalk>:
   82410:	defff704 	addi	sp,sp,-36
   82414:	dd000415 	stw	r20,16(sp)
   82418:	dfc00815 	stw	ra,32(sp)
   8241c:	ddc00715 	stw	r23,28(sp)
   82420:	dd800615 	stw	r22,24(sp)
   82424:	dd400515 	stw	r21,20(sp)
   82428:	dcc00315 	stw	r19,12(sp)
   8242c:	dc800215 	stw	r18,8(sp)
   82430:	dc400115 	stw	r17,4(sp)
   82434:	dc000015 	stw	r16,0(sp)
   82438:	2500b804 	addi	r20,r4,736
   8243c:	a0002326 	beq	r20,zero,824cc <_fwalk+0xbc>
   82440:	282b883a 	mov	r21,r5
   82444:	002f883a 	mov	r23,zero
   82448:	05800044 	movi	r22,1
   8244c:	04ffffc4 	movi	r19,-1
   82450:	a4400117 	ldw	r17,4(r20)
   82454:	a4800217 	ldw	r18,8(r20)
   82458:	8c7fffc4 	addi	r17,r17,-1
   8245c:	88000d16 	blt	r17,zero,82494 <_fwalk+0x84>
   82460:	94000304 	addi	r16,r18,12
   82464:	94800384 	addi	r18,r18,14
   82468:	8080000b 	ldhu	r2,0(r16)
   8246c:	8c7fffc4 	addi	r17,r17,-1
   82470:	813ffd04 	addi	r4,r16,-12
   82474:	b080042e 	bgeu	r22,r2,82488 <_fwalk+0x78>
   82478:	9080000f 	ldh	r2,0(r18)
   8247c:	14c00226 	beq	r2,r19,82488 <_fwalk+0x78>
   82480:	a83ee83a 	callr	r21
   82484:	b8aeb03a 	or	r23,r23,r2
   82488:	84001a04 	addi	r16,r16,104
   8248c:	94801a04 	addi	r18,r18,104
   82490:	8cfff51e 	bne	r17,r19,82468 <rx_descriptor_end+0xfff82408>
   82494:	a5000017 	ldw	r20,0(r20)
   82498:	a03fed1e 	bne	r20,zero,82450 <rx_descriptor_end+0xfff823f0>
   8249c:	b805883a 	mov	r2,r23
   824a0:	dfc00817 	ldw	ra,32(sp)
   824a4:	ddc00717 	ldw	r23,28(sp)
   824a8:	dd800617 	ldw	r22,24(sp)
   824ac:	dd400517 	ldw	r21,20(sp)
   824b0:	dd000417 	ldw	r20,16(sp)
   824b4:	dcc00317 	ldw	r19,12(sp)
   824b8:	dc800217 	ldw	r18,8(sp)
   824bc:	dc400117 	ldw	r17,4(sp)
   824c0:	dc000017 	ldw	r16,0(sp)
   824c4:	dec00904 	addi	sp,sp,36
   824c8:	f800283a 	ret
   824cc:	002f883a 	mov	r23,zero
   824d0:	003ff206 	br	8249c <rx_descriptor_end+0xfff8243c>

000824d4 <_fwalk_reent>:
   824d4:	defff704 	addi	sp,sp,-36
   824d8:	dd000415 	stw	r20,16(sp)
   824dc:	dfc00815 	stw	ra,32(sp)
   824e0:	ddc00715 	stw	r23,28(sp)
   824e4:	dd800615 	stw	r22,24(sp)
   824e8:	dd400515 	stw	r21,20(sp)
   824ec:	dcc00315 	stw	r19,12(sp)
   824f0:	dc800215 	stw	r18,8(sp)
   824f4:	dc400115 	stw	r17,4(sp)
   824f8:	dc000015 	stw	r16,0(sp)
   824fc:	2500b804 	addi	r20,r4,736
   82500:	a0002326 	beq	r20,zero,82590 <_fwalk_reent+0xbc>
   82504:	282b883a 	mov	r21,r5
   82508:	2027883a 	mov	r19,r4
   8250c:	002f883a 	mov	r23,zero
   82510:	05800044 	movi	r22,1
   82514:	04bfffc4 	movi	r18,-1
   82518:	a4400117 	ldw	r17,4(r20)
   8251c:	a4000217 	ldw	r16,8(r20)
   82520:	8c7fffc4 	addi	r17,r17,-1
   82524:	88000c16 	blt	r17,zero,82558 <_fwalk_reent+0x84>
   82528:	84000304 	addi	r16,r16,12
   8252c:	8080000b 	ldhu	r2,0(r16)
   82530:	8c7fffc4 	addi	r17,r17,-1
   82534:	817ffd04 	addi	r5,r16,-12
   82538:	b080052e 	bgeu	r22,r2,82550 <_fwalk_reent+0x7c>
   8253c:	8080008f 	ldh	r2,2(r16)
   82540:	9809883a 	mov	r4,r19
   82544:	14800226 	beq	r2,r18,82550 <_fwalk_reent+0x7c>
   82548:	a83ee83a 	callr	r21
   8254c:	b8aeb03a 	or	r23,r23,r2
   82550:	84001a04 	addi	r16,r16,104
   82554:	8cbff51e 	bne	r17,r18,8252c <rx_descriptor_end+0xfff824cc>
   82558:	a5000017 	ldw	r20,0(r20)
   8255c:	a03fee1e 	bne	r20,zero,82518 <rx_descriptor_end+0xfff824b8>
   82560:	b805883a 	mov	r2,r23
   82564:	dfc00817 	ldw	ra,32(sp)
   82568:	ddc00717 	ldw	r23,28(sp)
   8256c:	dd800617 	ldw	r22,24(sp)
   82570:	dd400517 	ldw	r21,20(sp)
   82574:	dd000417 	ldw	r20,16(sp)
   82578:	dcc00317 	ldw	r19,12(sp)
   8257c:	dc800217 	ldw	r18,8(sp)
   82580:	dc400117 	ldw	r17,4(sp)
   82584:	dc000017 	ldw	r16,0(sp)
   82588:	dec00904 	addi	sp,sp,36
   8258c:	f800283a 	ret
   82590:	002f883a 	mov	r23,zero
   82594:	003ff206 	br	82560 <rx_descriptor_end+0xfff82500>

00082598 <malloc>:
   82598:	00800274 	movhi	r2,9
   8259c:	1090c504 	addi	r2,r2,17172
   825a0:	200b883a 	mov	r5,r4
   825a4:	11000017 	ldw	r4,0(r2)
   825a8:	00825c01 	jmpi	825c0 <_malloc_r>

000825ac <free>:
   825ac:	00800274 	movhi	r2,9
   825b0:	1090c504 	addi	r2,r2,17172
   825b4:	200b883a 	mov	r5,r4
   825b8:	11000017 	ldw	r4,0(r2)
   825bc:	00821001 	jmpi	82100 <_free_r>

000825c0 <_malloc_r>:
   825c0:	defff504 	addi	sp,sp,-44
   825c4:	dc800315 	stw	r18,12(sp)
   825c8:	dfc00a15 	stw	ra,40(sp)
   825cc:	df000915 	stw	fp,36(sp)
   825d0:	ddc00815 	stw	r23,32(sp)
   825d4:	dd800715 	stw	r22,28(sp)
   825d8:	dd400615 	stw	r21,24(sp)
   825dc:	dd000515 	stw	r20,20(sp)
   825e0:	dcc00415 	stw	r19,16(sp)
   825e4:	dc400215 	stw	r17,8(sp)
   825e8:	dc000115 	stw	r16,4(sp)
   825ec:	288002c4 	addi	r2,r5,11
   825f0:	00c00584 	movi	r3,22
   825f4:	2025883a 	mov	r18,r4
   825f8:	18807f2e 	bgeu	r3,r2,827f8 <_malloc_r+0x238>
   825fc:	047ffe04 	movi	r17,-8
   82600:	1462703a 	and	r17,r2,r17
   82604:	8800a316 	blt	r17,zero,82894 <_malloc_r+0x2d4>
   82608:	8940a236 	bltu	r17,r5,82894 <_malloc_r+0x2d4>
   8260c:	008ea280 	call	8ea28 <__malloc_lock>
   82610:	00807dc4 	movi	r2,503
   82614:	1441e92e 	bgeu	r2,r17,82dbc <_malloc_r+0x7fc>
   82618:	8804d27a 	srli	r2,r17,9
   8261c:	1000a126 	beq	r2,zero,828a4 <_malloc_r+0x2e4>
   82620:	00c00104 	movi	r3,4
   82624:	18811e36 	bltu	r3,r2,82aa0 <_malloc_r+0x4e0>
   82628:	8804d1ba 	srli	r2,r17,6
   8262c:	12000e44 	addi	r8,r2,57
   82630:	11c00e04 	addi	r7,r2,56
   82634:	4209883a 	add	r4,r8,r8
   82638:	04c00274 	movhi	r19,9
   8263c:	2109883a 	add	r4,r4,r4
   82640:	9ccb0904 	addi	r19,r19,11300
   82644:	2109883a 	add	r4,r4,r4
   82648:	9909883a 	add	r4,r19,r4
   8264c:	24000117 	ldw	r16,4(r4)
   82650:	213ffe04 	addi	r4,r4,-8
   82654:	24009726 	beq	r4,r16,828b4 <_malloc_r+0x2f4>
   82658:	80800117 	ldw	r2,4(r16)
   8265c:	01bfff04 	movi	r6,-4
   82660:	014003c4 	movi	r5,15
   82664:	1184703a 	and	r2,r2,r6
   82668:	1447c83a 	sub	r3,r2,r17
   8266c:	28c00716 	blt	r5,r3,8268c <_malloc_r+0xcc>
   82670:	1800920e 	bge	r3,zero,828bc <_malloc_r+0x2fc>
   82674:	84000317 	ldw	r16,12(r16)
   82678:	24008e26 	beq	r4,r16,828b4 <_malloc_r+0x2f4>
   8267c:	80800117 	ldw	r2,4(r16)
   82680:	1184703a 	and	r2,r2,r6
   82684:	1447c83a 	sub	r3,r2,r17
   82688:	28fff90e 	bge	r5,r3,82670 <rx_descriptor_end+0xfff82610>
   8268c:	3809883a 	mov	r4,r7
   82690:	01800274 	movhi	r6,9
   82694:	9c000417 	ldw	r16,16(r19)
   82698:	318b0904 	addi	r6,r6,11300
   8269c:	32000204 	addi	r8,r6,8
   826a0:	82013426 	beq	r16,r8,82b74 <_malloc_r+0x5b4>
   826a4:	80c00117 	ldw	r3,4(r16)
   826a8:	00bfff04 	movi	r2,-4
   826ac:	188e703a 	and	r7,r3,r2
   826b0:	3c45c83a 	sub	r2,r7,r17
   826b4:	00c003c4 	movi	r3,15
   826b8:	18811f16 	blt	r3,r2,82b38 <_malloc_r+0x578>
   826bc:	32000515 	stw	r8,20(r6)
   826c0:	32000415 	stw	r8,16(r6)
   826c4:	10007f0e 	bge	r2,zero,828c4 <_malloc_r+0x304>
   826c8:	00807fc4 	movi	r2,511
   826cc:	11c0fd36 	bltu	r2,r7,82ac4 <_malloc_r+0x504>
   826d0:	3806d0fa 	srli	r3,r7,3
   826d4:	01c00044 	movi	r7,1
   826d8:	30800117 	ldw	r2,4(r6)
   826dc:	19400044 	addi	r5,r3,1
   826e0:	294b883a 	add	r5,r5,r5
   826e4:	1807d0ba 	srai	r3,r3,2
   826e8:	294b883a 	add	r5,r5,r5
   826ec:	294b883a 	add	r5,r5,r5
   826f0:	298b883a 	add	r5,r5,r6
   826f4:	38c6983a 	sll	r3,r7,r3
   826f8:	29c00017 	ldw	r7,0(r5)
   826fc:	2a7ffe04 	addi	r9,r5,-8
   82700:	1886b03a 	or	r3,r3,r2
   82704:	82400315 	stw	r9,12(r16)
   82708:	81c00215 	stw	r7,8(r16)
   8270c:	30c00115 	stw	r3,4(r6)
   82710:	2c000015 	stw	r16,0(r5)
   82714:	3c000315 	stw	r16,12(r7)
   82718:	2005d0ba 	srai	r2,r4,2
   8271c:	01400044 	movi	r5,1
   82720:	288a983a 	sll	r5,r5,r2
   82724:	19406f36 	bltu	r3,r5,828e4 <_malloc_r+0x324>
   82728:	28c4703a 	and	r2,r5,r3
   8272c:	10000a1e 	bne	r2,zero,82758 <_malloc_r+0x198>
   82730:	00bfff04 	movi	r2,-4
   82734:	294b883a 	add	r5,r5,r5
   82738:	2088703a 	and	r4,r4,r2
   8273c:	28c4703a 	and	r2,r5,r3
   82740:	21000104 	addi	r4,r4,4
   82744:	1000041e 	bne	r2,zero,82758 <_malloc_r+0x198>
   82748:	294b883a 	add	r5,r5,r5
   8274c:	28c4703a 	and	r2,r5,r3
   82750:	21000104 	addi	r4,r4,4
   82754:	103ffc26 	beq	r2,zero,82748 <rx_descriptor_end+0xfff826e8>
   82758:	02bfff04 	movi	r10,-4
   8275c:	024003c4 	movi	r9,15
   82760:	21800044 	addi	r6,r4,1
   82764:	318d883a 	add	r6,r6,r6
   82768:	318d883a 	add	r6,r6,r6
   8276c:	318d883a 	add	r6,r6,r6
   82770:	998d883a 	add	r6,r19,r6
   82774:	333ffe04 	addi	r12,r6,-8
   82778:	2017883a 	mov	r11,r4
   8277c:	31800104 	addi	r6,r6,4
   82780:	34000017 	ldw	r16,0(r6)
   82784:	31fffd04 	addi	r7,r6,-12
   82788:	81c0041e 	bne	r16,r7,8279c <_malloc_r+0x1dc>
   8278c:	0000fb06 	br	82b7c <_malloc_r+0x5bc>
   82790:	1801030e 	bge	r3,zero,82ba0 <_malloc_r+0x5e0>
   82794:	84000317 	ldw	r16,12(r16)
   82798:	81c0f826 	beq	r16,r7,82b7c <_malloc_r+0x5bc>
   8279c:	80800117 	ldw	r2,4(r16)
   827a0:	1284703a 	and	r2,r2,r10
   827a4:	1447c83a 	sub	r3,r2,r17
   827a8:	48fff90e 	bge	r9,r3,82790 <rx_descriptor_end+0xfff82730>
   827ac:	80800317 	ldw	r2,12(r16)
   827b0:	81000217 	ldw	r4,8(r16)
   827b4:	89400054 	ori	r5,r17,1
   827b8:	81400115 	stw	r5,4(r16)
   827bc:	20800315 	stw	r2,12(r4)
   827c0:	11000215 	stw	r4,8(r2)
   827c4:	8463883a 	add	r17,r16,r17
   827c8:	9c400515 	stw	r17,20(r19)
   827cc:	9c400415 	stw	r17,16(r19)
   827d0:	18800054 	ori	r2,r3,1
   827d4:	88800115 	stw	r2,4(r17)
   827d8:	8a000315 	stw	r8,12(r17)
   827dc:	8a000215 	stw	r8,8(r17)
   827e0:	88e3883a 	add	r17,r17,r3
   827e4:	88c00015 	stw	r3,0(r17)
   827e8:	9009883a 	mov	r4,r18
   827ec:	008ea4c0 	call	8ea4c <__malloc_unlock>
   827f0:	80800204 	addi	r2,r16,8
   827f4:	00001b06 	br	82864 <_malloc_r+0x2a4>
   827f8:	04400404 	movi	r17,16
   827fc:	89402536 	bltu	r17,r5,82894 <_malloc_r+0x2d4>
   82800:	008ea280 	call	8ea28 <__malloc_lock>
   82804:	00800184 	movi	r2,6
   82808:	01000084 	movi	r4,2
   8280c:	04c00274 	movhi	r19,9
   82810:	1085883a 	add	r2,r2,r2
   82814:	9ccb0904 	addi	r19,r19,11300
   82818:	1085883a 	add	r2,r2,r2
   8281c:	9885883a 	add	r2,r19,r2
   82820:	14000117 	ldw	r16,4(r2)
   82824:	10fffe04 	addi	r3,r2,-8
   82828:	80c0d926 	beq	r16,r3,82b90 <_malloc_r+0x5d0>
   8282c:	80c00117 	ldw	r3,4(r16)
   82830:	81000317 	ldw	r4,12(r16)
   82834:	00bfff04 	movi	r2,-4
   82838:	1884703a 	and	r2,r3,r2
   8283c:	81400217 	ldw	r5,8(r16)
   82840:	8085883a 	add	r2,r16,r2
   82844:	10c00117 	ldw	r3,4(r2)
   82848:	29000315 	stw	r4,12(r5)
   8284c:	21400215 	stw	r5,8(r4)
   82850:	18c00054 	ori	r3,r3,1
   82854:	10c00115 	stw	r3,4(r2)
   82858:	9009883a 	mov	r4,r18
   8285c:	008ea4c0 	call	8ea4c <__malloc_unlock>
   82860:	80800204 	addi	r2,r16,8
   82864:	dfc00a17 	ldw	ra,40(sp)
   82868:	df000917 	ldw	fp,36(sp)
   8286c:	ddc00817 	ldw	r23,32(sp)
   82870:	dd800717 	ldw	r22,28(sp)
   82874:	dd400617 	ldw	r21,24(sp)
   82878:	dd000517 	ldw	r20,20(sp)
   8287c:	dcc00417 	ldw	r19,16(sp)
   82880:	dc800317 	ldw	r18,12(sp)
   82884:	dc400217 	ldw	r17,8(sp)
   82888:	dc000117 	ldw	r16,4(sp)
   8288c:	dec00b04 	addi	sp,sp,44
   82890:	f800283a 	ret
   82894:	00800304 	movi	r2,12
   82898:	90800015 	stw	r2,0(r18)
   8289c:	0005883a 	mov	r2,zero
   828a0:	003ff006 	br	82864 <rx_descriptor_end+0xfff82804>
   828a4:	01002004 	movi	r4,128
   828a8:	02001004 	movi	r8,64
   828ac:	01c00fc4 	movi	r7,63
   828b0:	003f6106 	br	82638 <rx_descriptor_end+0xfff825d8>
   828b4:	4009883a 	mov	r4,r8
   828b8:	003f7506 	br	82690 <rx_descriptor_end+0xfff82630>
   828bc:	81000317 	ldw	r4,12(r16)
   828c0:	003fde06 	br	8283c <rx_descriptor_end+0xfff827dc>
   828c4:	81c5883a 	add	r2,r16,r7
   828c8:	11400117 	ldw	r5,4(r2)
   828cc:	9009883a 	mov	r4,r18
   828d0:	29400054 	ori	r5,r5,1
   828d4:	11400115 	stw	r5,4(r2)
   828d8:	008ea4c0 	call	8ea4c <__malloc_unlock>
   828dc:	80800204 	addi	r2,r16,8
   828e0:	003fe006 	br	82864 <rx_descriptor_end+0xfff82804>
   828e4:	9c000217 	ldw	r16,8(r19)
   828e8:	00bfff04 	movi	r2,-4
   828ec:	85800117 	ldw	r22,4(r16)
   828f0:	b0ac703a 	and	r22,r22,r2
   828f4:	b4400336 	bltu	r22,r17,82904 <_malloc_r+0x344>
   828f8:	b445c83a 	sub	r2,r22,r17
   828fc:	00c003c4 	movi	r3,15
   82900:	18805d16 	blt	r3,r2,82a78 <_malloc_r+0x4b8>
   82904:	05c00274 	movhi	r23,9
   82908:	00800274 	movhi	r2,9
   8290c:	1098bc04 	addi	r2,r2,25328
   82910:	bdd0c604 	addi	r23,r23,17176
   82914:	15400017 	ldw	r21,0(r2)
   82918:	b8c00017 	ldw	r3,0(r23)
   8291c:	00bfffc4 	movi	r2,-1
   82920:	858d883a 	add	r6,r16,r22
   82924:	8d6b883a 	add	r21,r17,r21
   82928:	1880ea26 	beq	r3,r2,82cd4 <_malloc_r+0x714>
   8292c:	ad4403c4 	addi	r21,r21,4111
   82930:	00bc0004 	movi	r2,-4096
   82934:	a8aa703a 	and	r21,r21,r2
   82938:	a80b883a 	mov	r5,r21
   8293c:	9009883a 	mov	r4,r18
   82940:	d9800015 	stw	r6,0(sp)
   82944:	00831b00 	call	831b0 <_sbrk_r>
   82948:	1029883a 	mov	r20,r2
   8294c:	00bfffc4 	movi	r2,-1
   82950:	d9800017 	ldw	r6,0(sp)
   82954:	a080e826 	beq	r20,r2,82cf8 <_malloc_r+0x738>
   82958:	a180a636 	bltu	r20,r6,82bf4 <_malloc_r+0x634>
   8295c:	07000274 	movhi	fp,9
   82960:	e719c804 	addi	fp,fp,26400
   82964:	e0800017 	ldw	r2,0(fp)
   82968:	a887883a 	add	r3,r21,r2
   8296c:	e0c00015 	stw	r3,0(fp)
   82970:	3500e626 	beq	r6,r20,82d0c <_malloc_r+0x74c>
   82974:	b9000017 	ldw	r4,0(r23)
   82978:	00bfffc4 	movi	r2,-1
   8297c:	2080ee26 	beq	r4,r2,82d38 <_malloc_r+0x778>
   82980:	a185c83a 	sub	r2,r20,r6
   82984:	10c5883a 	add	r2,r2,r3
   82988:	e0800015 	stw	r2,0(fp)
   8298c:	a0c001cc 	andi	r3,r20,7
   82990:	1800bc26 	beq	r3,zero,82c84 <_malloc_r+0x6c4>
   82994:	a0e9c83a 	sub	r20,r20,r3
   82998:	00840204 	movi	r2,4104
   8299c:	a5000204 	addi	r20,r20,8
   829a0:	10c7c83a 	sub	r3,r2,r3
   829a4:	a545883a 	add	r2,r20,r21
   829a8:	1083ffcc 	andi	r2,r2,4095
   829ac:	18abc83a 	sub	r21,r3,r2
   829b0:	a80b883a 	mov	r5,r21
   829b4:	9009883a 	mov	r4,r18
   829b8:	00831b00 	call	831b0 <_sbrk_r>
   829bc:	00ffffc4 	movi	r3,-1
   829c0:	10c0e126 	beq	r2,r3,82d48 <_malloc_r+0x788>
   829c4:	1505c83a 	sub	r2,r2,r20
   829c8:	1545883a 	add	r2,r2,r21
   829cc:	10800054 	ori	r2,r2,1
   829d0:	e0c00017 	ldw	r3,0(fp)
   829d4:	9d000215 	stw	r20,8(r19)
   829d8:	a0800115 	stw	r2,4(r20)
   829dc:	a8c7883a 	add	r3,r21,r3
   829e0:	e0c00015 	stw	r3,0(fp)
   829e4:	84c00e26 	beq	r16,r19,82a20 <_malloc_r+0x460>
   829e8:	018003c4 	movi	r6,15
   829ec:	3580a72e 	bgeu	r6,r22,82c8c <_malloc_r+0x6cc>
   829f0:	81400117 	ldw	r5,4(r16)
   829f4:	013ffe04 	movi	r4,-8
   829f8:	b0bffd04 	addi	r2,r22,-12
   829fc:	1104703a 	and	r2,r2,r4
   82a00:	2900004c 	andi	r4,r5,1
   82a04:	2088b03a 	or	r4,r4,r2
   82a08:	81000115 	stw	r4,4(r16)
   82a0c:	01400144 	movi	r5,5
   82a10:	8089883a 	add	r4,r16,r2
   82a14:	21400115 	stw	r5,4(r4)
   82a18:	21400215 	stw	r5,8(r4)
   82a1c:	3080cd36 	bltu	r6,r2,82d54 <_malloc_r+0x794>
   82a20:	00800274 	movhi	r2,9
   82a24:	1098bb04 	addi	r2,r2,25324
   82a28:	11000017 	ldw	r4,0(r2)
   82a2c:	20c0012e 	bgeu	r4,r3,82a34 <_malloc_r+0x474>
   82a30:	10c00015 	stw	r3,0(r2)
   82a34:	00800274 	movhi	r2,9
   82a38:	1098ba04 	addi	r2,r2,25320
   82a3c:	11000017 	ldw	r4,0(r2)
   82a40:	9c000217 	ldw	r16,8(r19)
   82a44:	20c0012e 	bgeu	r4,r3,82a4c <_malloc_r+0x48c>
   82a48:	10c00015 	stw	r3,0(r2)
   82a4c:	80c00117 	ldw	r3,4(r16)
   82a50:	00bfff04 	movi	r2,-4
   82a54:	1886703a 	and	r3,r3,r2
   82a58:	1c45c83a 	sub	r2,r3,r17
   82a5c:	1c400236 	bltu	r3,r17,82a68 <_malloc_r+0x4a8>
   82a60:	00c003c4 	movi	r3,15
   82a64:	18800416 	blt	r3,r2,82a78 <_malloc_r+0x4b8>
   82a68:	9009883a 	mov	r4,r18
   82a6c:	008ea4c0 	call	8ea4c <__malloc_unlock>
   82a70:	0005883a 	mov	r2,zero
   82a74:	003f7b06 	br	82864 <rx_descriptor_end+0xfff82804>
   82a78:	88c00054 	ori	r3,r17,1
   82a7c:	80c00115 	stw	r3,4(r16)
   82a80:	8463883a 	add	r17,r16,r17
   82a84:	10800054 	ori	r2,r2,1
   82a88:	9c400215 	stw	r17,8(r19)
   82a8c:	88800115 	stw	r2,4(r17)
   82a90:	9009883a 	mov	r4,r18
   82a94:	008ea4c0 	call	8ea4c <__malloc_unlock>
   82a98:	80800204 	addi	r2,r16,8
   82a9c:	003f7106 	br	82864 <rx_descriptor_end+0xfff82804>
   82aa0:	00c00504 	movi	r3,20
   82aa4:	18804a2e 	bgeu	r3,r2,82bd0 <_malloc_r+0x610>
   82aa8:	00c01504 	movi	r3,84
   82aac:	18806e36 	bltu	r3,r2,82c68 <_malloc_r+0x6a8>
   82ab0:	8804d33a 	srli	r2,r17,12
   82ab4:	12001bc4 	addi	r8,r2,111
   82ab8:	11c01b84 	addi	r7,r2,110
   82abc:	4209883a 	add	r4,r8,r8
   82ac0:	003edd06 	br	82638 <rx_descriptor_end+0xfff825d8>
   82ac4:	3804d27a 	srli	r2,r7,9
   82ac8:	00c00104 	movi	r3,4
   82acc:	1880442e 	bgeu	r3,r2,82be0 <_malloc_r+0x620>
   82ad0:	00c00504 	movi	r3,20
   82ad4:	18808136 	bltu	r3,r2,82cdc <_malloc_r+0x71c>
   82ad8:	11401704 	addi	r5,r2,92
   82adc:	10c016c4 	addi	r3,r2,91
   82ae0:	294b883a 	add	r5,r5,r5
   82ae4:	294b883a 	add	r5,r5,r5
   82ae8:	294b883a 	add	r5,r5,r5
   82aec:	994b883a 	add	r5,r19,r5
   82af0:	28800017 	ldw	r2,0(r5)
   82af4:	01800274 	movhi	r6,9
   82af8:	297ffe04 	addi	r5,r5,-8
   82afc:	318b0904 	addi	r6,r6,11300
   82b00:	28806526 	beq	r5,r2,82c98 <_malloc_r+0x6d8>
   82b04:	01bfff04 	movi	r6,-4
   82b08:	10c00117 	ldw	r3,4(r2)
   82b0c:	1986703a 	and	r3,r3,r6
   82b10:	38c0022e 	bgeu	r7,r3,82b1c <_malloc_r+0x55c>
   82b14:	10800217 	ldw	r2,8(r2)
   82b18:	28bffb1e 	bne	r5,r2,82b08 <rx_descriptor_end+0xfff82aa8>
   82b1c:	11400317 	ldw	r5,12(r2)
   82b20:	98c00117 	ldw	r3,4(r19)
   82b24:	81400315 	stw	r5,12(r16)
   82b28:	80800215 	stw	r2,8(r16)
   82b2c:	2c000215 	stw	r16,8(r5)
   82b30:	14000315 	stw	r16,12(r2)
   82b34:	003ef806 	br	82718 <rx_descriptor_end+0xfff826b8>
   82b38:	88c00054 	ori	r3,r17,1
   82b3c:	80c00115 	stw	r3,4(r16)
   82b40:	8463883a 	add	r17,r16,r17
   82b44:	34400515 	stw	r17,20(r6)
   82b48:	34400415 	stw	r17,16(r6)
   82b4c:	10c00054 	ori	r3,r2,1
   82b50:	8a000315 	stw	r8,12(r17)
   82b54:	8a000215 	stw	r8,8(r17)
   82b58:	88c00115 	stw	r3,4(r17)
   82b5c:	88a3883a 	add	r17,r17,r2
   82b60:	88800015 	stw	r2,0(r17)
   82b64:	9009883a 	mov	r4,r18
   82b68:	008ea4c0 	call	8ea4c <__malloc_unlock>
   82b6c:	80800204 	addi	r2,r16,8
   82b70:	003f3c06 	br	82864 <rx_descriptor_end+0xfff82804>
   82b74:	30c00117 	ldw	r3,4(r6)
   82b78:	003ee706 	br	82718 <rx_descriptor_end+0xfff826b8>
   82b7c:	5ac00044 	addi	r11,r11,1
   82b80:	588000cc 	andi	r2,r11,3
   82b84:	31800204 	addi	r6,r6,8
   82b88:	103efd1e 	bne	r2,zero,82780 <rx_descriptor_end+0xfff82720>
   82b8c:	00002406 	br	82c20 <_malloc_r+0x660>
   82b90:	14000317 	ldw	r16,12(r2)
   82b94:	143f251e 	bne	r2,r16,8282c <rx_descriptor_end+0xfff827cc>
   82b98:	21000084 	addi	r4,r4,2
   82b9c:	003ebc06 	br	82690 <rx_descriptor_end+0xfff82630>
   82ba0:	8085883a 	add	r2,r16,r2
   82ba4:	10c00117 	ldw	r3,4(r2)
   82ba8:	81000317 	ldw	r4,12(r16)
   82bac:	81400217 	ldw	r5,8(r16)
   82bb0:	18c00054 	ori	r3,r3,1
   82bb4:	10c00115 	stw	r3,4(r2)
   82bb8:	29000315 	stw	r4,12(r5)
   82bbc:	21400215 	stw	r5,8(r4)
   82bc0:	9009883a 	mov	r4,r18
   82bc4:	008ea4c0 	call	8ea4c <__malloc_unlock>
   82bc8:	80800204 	addi	r2,r16,8
   82bcc:	003f2506 	br	82864 <rx_descriptor_end+0xfff82804>
   82bd0:	12001704 	addi	r8,r2,92
   82bd4:	11c016c4 	addi	r7,r2,91
   82bd8:	4209883a 	add	r4,r8,r8
   82bdc:	003e9606 	br	82638 <rx_descriptor_end+0xfff825d8>
   82be0:	3804d1ba 	srli	r2,r7,6
   82be4:	11400e44 	addi	r5,r2,57
   82be8:	10c00e04 	addi	r3,r2,56
   82bec:	294b883a 	add	r5,r5,r5
   82bf0:	003fbc06 	br	82ae4 <rx_descriptor_end+0xfff82a84>
   82bf4:	84ff5926 	beq	r16,r19,8295c <rx_descriptor_end+0xfff828fc>
   82bf8:	00800274 	movhi	r2,9
   82bfc:	108b0904 	addi	r2,r2,11300
   82c00:	14000217 	ldw	r16,8(r2)
   82c04:	00bfff04 	movi	r2,-4
   82c08:	80c00117 	ldw	r3,4(r16)
   82c0c:	1886703a 	and	r3,r3,r2
   82c10:	003f9106 	br	82a58 <rx_descriptor_end+0xfff829f8>
   82c14:	60800217 	ldw	r2,8(r12)
   82c18:	213fffc4 	addi	r4,r4,-1
   82c1c:	1300651e 	bne	r2,r12,82db4 <_malloc_r+0x7f4>
   82c20:	208000cc 	andi	r2,r4,3
   82c24:	633ffe04 	addi	r12,r12,-8
   82c28:	103ffa1e 	bne	r2,zero,82c14 <rx_descriptor_end+0xfff82bb4>
   82c2c:	98800117 	ldw	r2,4(r19)
   82c30:	0146303a 	nor	r3,zero,r5
   82c34:	1884703a 	and	r2,r3,r2
   82c38:	98800115 	stw	r2,4(r19)
   82c3c:	294b883a 	add	r5,r5,r5
   82c40:	117f2836 	bltu	r2,r5,828e4 <rx_descriptor_end+0xfff82884>
   82c44:	283f2726 	beq	r5,zero,828e4 <rx_descriptor_end+0xfff82884>
   82c48:	2886703a 	and	r3,r5,r2
   82c4c:	5809883a 	mov	r4,r11
   82c50:	183ec31e 	bne	r3,zero,82760 <rx_descriptor_end+0xfff82700>
   82c54:	294b883a 	add	r5,r5,r5
   82c58:	2886703a 	and	r3,r5,r2
   82c5c:	21000104 	addi	r4,r4,4
   82c60:	183ffc26 	beq	r3,zero,82c54 <rx_descriptor_end+0xfff82bf4>
   82c64:	003ebe06 	br	82760 <rx_descriptor_end+0xfff82700>
   82c68:	00c05504 	movi	r3,340
   82c6c:	18801236 	bltu	r3,r2,82cb8 <_malloc_r+0x6f8>
   82c70:	8804d3fa 	srli	r2,r17,15
   82c74:	12001e04 	addi	r8,r2,120
   82c78:	11c01dc4 	addi	r7,r2,119
   82c7c:	4209883a 	add	r4,r8,r8
   82c80:	003e6d06 	br	82638 <rx_descriptor_end+0xfff825d8>
   82c84:	00c40004 	movi	r3,4096
   82c88:	003f4606 	br	829a4 <rx_descriptor_end+0xfff82944>
   82c8c:	00800044 	movi	r2,1
   82c90:	a0800115 	stw	r2,4(r20)
   82c94:	003f7406 	br	82a68 <rx_descriptor_end+0xfff82a08>
   82c98:	1805d0ba 	srai	r2,r3,2
   82c9c:	01c00044 	movi	r7,1
   82ca0:	30c00117 	ldw	r3,4(r6)
   82ca4:	388e983a 	sll	r7,r7,r2
   82ca8:	2805883a 	mov	r2,r5
   82cac:	38c6b03a 	or	r3,r7,r3
   82cb0:	30c00115 	stw	r3,4(r6)
   82cb4:	003f9b06 	br	82b24 <rx_descriptor_end+0xfff82ac4>
   82cb8:	00c15504 	movi	r3,1364
   82cbc:	18801a36 	bltu	r3,r2,82d28 <_malloc_r+0x768>
   82cc0:	8804d4ba 	srli	r2,r17,18
   82cc4:	12001f44 	addi	r8,r2,125
   82cc8:	11c01f04 	addi	r7,r2,124
   82ccc:	4209883a 	add	r4,r8,r8
   82cd0:	003e5906 	br	82638 <rx_descriptor_end+0xfff825d8>
   82cd4:	ad400404 	addi	r21,r21,16
   82cd8:	003f1706 	br	82938 <rx_descriptor_end+0xfff828d8>
   82cdc:	00c01504 	movi	r3,84
   82ce0:	18802336 	bltu	r3,r2,82d70 <_malloc_r+0x7b0>
   82ce4:	3804d33a 	srli	r2,r7,12
   82ce8:	11401bc4 	addi	r5,r2,111
   82cec:	10c01b84 	addi	r3,r2,110
   82cf0:	294b883a 	add	r5,r5,r5
   82cf4:	003f7b06 	br	82ae4 <rx_descriptor_end+0xfff82a84>
   82cf8:	9c000217 	ldw	r16,8(r19)
   82cfc:	00bfff04 	movi	r2,-4
   82d00:	80c00117 	ldw	r3,4(r16)
   82d04:	1886703a 	and	r3,r3,r2
   82d08:	003f5306 	br	82a58 <rx_descriptor_end+0xfff829f8>
   82d0c:	3083ffcc 	andi	r2,r6,4095
   82d10:	103f181e 	bne	r2,zero,82974 <rx_descriptor_end+0xfff82914>
   82d14:	99000217 	ldw	r4,8(r19)
   82d18:	b545883a 	add	r2,r22,r21
   82d1c:	10800054 	ori	r2,r2,1
   82d20:	20800115 	stw	r2,4(r4)
   82d24:	003f3e06 	br	82a20 <rx_descriptor_end+0xfff829c0>
   82d28:	01003f84 	movi	r4,254
   82d2c:	02001fc4 	movi	r8,127
   82d30:	01c01f84 	movi	r7,126
   82d34:	003e4006 	br	82638 <rx_descriptor_end+0xfff825d8>
   82d38:	00800274 	movhi	r2,9
   82d3c:	1090c604 	addi	r2,r2,17176
   82d40:	15000015 	stw	r20,0(r2)
   82d44:	003f1106 	br	8298c <rx_descriptor_end+0xfff8292c>
   82d48:	00800044 	movi	r2,1
   82d4c:	002b883a 	mov	r21,zero
   82d50:	003f1f06 	br	829d0 <rx_descriptor_end+0xfff82970>
   82d54:	81400204 	addi	r5,r16,8
   82d58:	9009883a 	mov	r4,r18
   82d5c:	00821000 	call	82100 <_free_r>
   82d60:	00800274 	movhi	r2,9
   82d64:	1099c804 	addi	r2,r2,26400
   82d68:	10c00017 	ldw	r3,0(r2)
   82d6c:	003f2c06 	br	82a20 <rx_descriptor_end+0xfff829c0>
   82d70:	00c05504 	movi	r3,340
   82d74:	18800536 	bltu	r3,r2,82d8c <_malloc_r+0x7cc>
   82d78:	3804d3fa 	srli	r2,r7,15
   82d7c:	11401e04 	addi	r5,r2,120
   82d80:	10c01dc4 	addi	r3,r2,119
   82d84:	294b883a 	add	r5,r5,r5
   82d88:	003f5606 	br	82ae4 <rx_descriptor_end+0xfff82a84>
   82d8c:	00c15504 	movi	r3,1364
   82d90:	18800536 	bltu	r3,r2,82da8 <_malloc_r+0x7e8>
   82d94:	3804d4ba 	srli	r2,r7,18
   82d98:	11401f44 	addi	r5,r2,125
   82d9c:	10c01f04 	addi	r3,r2,124
   82da0:	294b883a 	add	r5,r5,r5
   82da4:	003f4f06 	br	82ae4 <rx_descriptor_end+0xfff82a84>
   82da8:	01403f84 	movi	r5,254
   82dac:	00c01f84 	movi	r3,126
   82db0:	003f4c06 	br	82ae4 <rx_descriptor_end+0xfff82a84>
   82db4:	98800117 	ldw	r2,4(r19)
   82db8:	003fa006 	br	82c3c <rx_descriptor_end+0xfff82bdc>
   82dbc:	8808d0fa 	srli	r4,r17,3
   82dc0:	20800044 	addi	r2,r4,1
   82dc4:	1085883a 	add	r2,r2,r2
   82dc8:	003e9006 	br	8280c <rx_descriptor_end+0xfff827ac>

00082dcc <memmove>:
   82dcc:	2005883a 	mov	r2,r4
   82dd0:	29000b2e 	bgeu	r5,r4,82e00 <memmove+0x34>
   82dd4:	298f883a 	add	r7,r5,r6
   82dd8:	21c0092e 	bgeu	r4,r7,82e00 <memmove+0x34>
   82ddc:	2187883a 	add	r3,r4,r6
   82de0:	198bc83a 	sub	r5,r3,r6
   82de4:	30004826 	beq	r6,zero,82f08 <memmove+0x13c>
   82de8:	39ffffc4 	addi	r7,r7,-1
   82dec:	39000003 	ldbu	r4,0(r7)
   82df0:	18ffffc4 	addi	r3,r3,-1
   82df4:	19000005 	stb	r4,0(r3)
   82df8:	28fffb1e 	bne	r5,r3,82de8 <rx_descriptor_end+0xfff82d88>
   82dfc:	f800283a 	ret
   82e00:	00c003c4 	movi	r3,15
   82e04:	1980412e 	bgeu	r3,r6,82f0c <memmove+0x140>
   82e08:	2886b03a 	or	r3,r5,r2
   82e0c:	18c000cc 	andi	r3,r3,3
   82e10:	1800401e 	bne	r3,zero,82f14 <memmove+0x148>
   82e14:	33fffc04 	addi	r15,r6,-16
   82e18:	781ed13a 	srli	r15,r15,4
   82e1c:	28c00104 	addi	r3,r5,4
   82e20:	13400104 	addi	r13,r2,4
   82e24:	781c913a 	slli	r14,r15,4
   82e28:	2b000204 	addi	r12,r5,8
   82e2c:	12c00204 	addi	r11,r2,8
   82e30:	73800504 	addi	r14,r14,20
   82e34:	2a800304 	addi	r10,r5,12
   82e38:	12400304 	addi	r9,r2,12
   82e3c:	2b9d883a 	add	r14,r5,r14
   82e40:	2811883a 	mov	r8,r5
   82e44:	100f883a 	mov	r7,r2
   82e48:	41000017 	ldw	r4,0(r8)
   82e4c:	39c00404 	addi	r7,r7,16
   82e50:	18c00404 	addi	r3,r3,16
   82e54:	393ffc15 	stw	r4,-16(r7)
   82e58:	193ffc17 	ldw	r4,-16(r3)
   82e5c:	6b400404 	addi	r13,r13,16
   82e60:	5ac00404 	addi	r11,r11,16
   82e64:	693ffc15 	stw	r4,-16(r13)
   82e68:	61000017 	ldw	r4,0(r12)
   82e6c:	4a400404 	addi	r9,r9,16
   82e70:	42000404 	addi	r8,r8,16
   82e74:	593ffc15 	stw	r4,-16(r11)
   82e78:	51000017 	ldw	r4,0(r10)
   82e7c:	63000404 	addi	r12,r12,16
   82e80:	52800404 	addi	r10,r10,16
   82e84:	493ffc15 	stw	r4,-16(r9)
   82e88:	1bbfef1e 	bne	r3,r14,82e48 <rx_descriptor_end+0xfff82de8>
   82e8c:	79000044 	addi	r4,r15,1
   82e90:	2008913a 	slli	r4,r4,4
   82e94:	328003cc 	andi	r10,r6,15
   82e98:	02c000c4 	movi	r11,3
   82e9c:	1107883a 	add	r3,r2,r4
   82ea0:	290b883a 	add	r5,r5,r4
   82ea4:	5a801e2e 	bgeu	r11,r10,82f20 <memmove+0x154>
   82ea8:	1813883a 	mov	r9,r3
   82eac:	2811883a 	mov	r8,r5
   82eb0:	500f883a 	mov	r7,r10
   82eb4:	41000017 	ldw	r4,0(r8)
   82eb8:	4a400104 	addi	r9,r9,4
   82ebc:	39ffff04 	addi	r7,r7,-4
   82ec0:	493fff15 	stw	r4,-4(r9)
   82ec4:	42000104 	addi	r8,r8,4
   82ec8:	59fffa36 	bltu	r11,r7,82eb4 <rx_descriptor_end+0xfff82e54>
   82ecc:	513fff04 	addi	r4,r10,-4
   82ed0:	2008d0ba 	srli	r4,r4,2
   82ed4:	318000cc 	andi	r6,r6,3
   82ed8:	21000044 	addi	r4,r4,1
   82edc:	2109883a 	add	r4,r4,r4
   82ee0:	2109883a 	add	r4,r4,r4
   82ee4:	1907883a 	add	r3,r3,r4
   82ee8:	290b883a 	add	r5,r5,r4
   82eec:	30000b26 	beq	r6,zero,82f1c <memmove+0x150>
   82ef0:	198d883a 	add	r6,r3,r6
   82ef4:	29c00003 	ldbu	r7,0(r5)
   82ef8:	18c00044 	addi	r3,r3,1
   82efc:	29400044 	addi	r5,r5,1
   82f00:	19ffffc5 	stb	r7,-1(r3)
   82f04:	19bffb1e 	bne	r3,r6,82ef4 <rx_descriptor_end+0xfff82e94>
   82f08:	f800283a 	ret
   82f0c:	1007883a 	mov	r3,r2
   82f10:	003ff606 	br	82eec <rx_descriptor_end+0xfff82e8c>
   82f14:	1007883a 	mov	r3,r2
   82f18:	003ff506 	br	82ef0 <rx_descriptor_end+0xfff82e90>
   82f1c:	f800283a 	ret
   82f20:	500d883a 	mov	r6,r10
   82f24:	003ff106 	br	82eec <rx_descriptor_end+0xfff82e8c>

00082f28 <memset>:
   82f28:	20c000cc 	andi	r3,r4,3
   82f2c:	2005883a 	mov	r2,r4
   82f30:	18004426 	beq	r3,zero,83044 <memset+0x11c>
   82f34:	31ffffc4 	addi	r7,r6,-1
   82f38:	30004026 	beq	r6,zero,8303c <memset+0x114>
   82f3c:	2813883a 	mov	r9,r5
   82f40:	200d883a 	mov	r6,r4
   82f44:	2007883a 	mov	r3,r4
   82f48:	00000406 	br	82f5c <memset+0x34>
   82f4c:	3a3fffc4 	addi	r8,r7,-1
   82f50:	31800044 	addi	r6,r6,1
   82f54:	38003926 	beq	r7,zero,8303c <memset+0x114>
   82f58:	400f883a 	mov	r7,r8
   82f5c:	18c00044 	addi	r3,r3,1
   82f60:	32400005 	stb	r9,0(r6)
   82f64:	1a0000cc 	andi	r8,r3,3
   82f68:	403ff81e 	bne	r8,zero,82f4c <rx_descriptor_end+0xfff82eec>
   82f6c:	010000c4 	movi	r4,3
   82f70:	21c02d2e 	bgeu	r4,r7,83028 <memset+0x100>
   82f74:	29003fcc 	andi	r4,r5,255
   82f78:	200c923a 	slli	r6,r4,8
   82f7c:	3108b03a 	or	r4,r6,r4
   82f80:	200c943a 	slli	r6,r4,16
   82f84:	218cb03a 	or	r6,r4,r6
   82f88:	010003c4 	movi	r4,15
   82f8c:	21c0182e 	bgeu	r4,r7,82ff0 <memset+0xc8>
   82f90:	3b3ffc04 	addi	r12,r7,-16
   82f94:	6018d13a 	srli	r12,r12,4
   82f98:	1a000104 	addi	r8,r3,4
   82f9c:	1ac00204 	addi	r11,r3,8
   82fa0:	6008913a 	slli	r4,r12,4
   82fa4:	1a800304 	addi	r10,r3,12
   82fa8:	1813883a 	mov	r9,r3
   82fac:	21000504 	addi	r4,r4,20
   82fb0:	1909883a 	add	r4,r3,r4
   82fb4:	49800015 	stw	r6,0(r9)
   82fb8:	41800015 	stw	r6,0(r8)
   82fbc:	59800015 	stw	r6,0(r11)
   82fc0:	51800015 	stw	r6,0(r10)
   82fc4:	42000404 	addi	r8,r8,16
   82fc8:	4a400404 	addi	r9,r9,16
   82fcc:	5ac00404 	addi	r11,r11,16
   82fd0:	52800404 	addi	r10,r10,16
   82fd4:	413ff71e 	bne	r8,r4,82fb4 <rx_descriptor_end+0xfff82f54>
   82fd8:	63000044 	addi	r12,r12,1
   82fdc:	6018913a 	slli	r12,r12,4
   82fe0:	39c003cc 	andi	r7,r7,15
   82fe4:	010000c4 	movi	r4,3
   82fe8:	1b07883a 	add	r3,r3,r12
   82fec:	21c00e2e 	bgeu	r4,r7,83028 <memset+0x100>
   82ff0:	1813883a 	mov	r9,r3
   82ff4:	3811883a 	mov	r8,r7
   82ff8:	010000c4 	movi	r4,3
   82ffc:	49800015 	stw	r6,0(r9)
   83000:	423fff04 	addi	r8,r8,-4
   83004:	4a400104 	addi	r9,r9,4
   83008:	223ffc36 	bltu	r4,r8,82ffc <rx_descriptor_end+0xfff82f9c>
   8300c:	393fff04 	addi	r4,r7,-4
   83010:	2008d0ba 	srli	r4,r4,2
   83014:	39c000cc 	andi	r7,r7,3
   83018:	21000044 	addi	r4,r4,1
   8301c:	2109883a 	add	r4,r4,r4
   83020:	2109883a 	add	r4,r4,r4
   83024:	1907883a 	add	r3,r3,r4
   83028:	38000526 	beq	r7,zero,83040 <memset+0x118>
   8302c:	19cf883a 	add	r7,r3,r7
   83030:	19400005 	stb	r5,0(r3)
   83034:	18c00044 	addi	r3,r3,1
   83038:	38fffd1e 	bne	r7,r3,83030 <rx_descriptor_end+0xfff82fd0>
   8303c:	f800283a 	ret
   83040:	f800283a 	ret
   83044:	2007883a 	mov	r3,r4
   83048:	300f883a 	mov	r7,r6
   8304c:	003fc706 	br	82f6c <rx_descriptor_end+0xfff82f0c>

00083050 <_printf_r>:
   83050:	defffd04 	addi	sp,sp,-12
   83054:	2805883a 	mov	r2,r5
   83058:	dfc00015 	stw	ra,0(sp)
   8305c:	d9800115 	stw	r6,4(sp)
   83060:	d9c00215 	stw	r7,8(sp)
   83064:	21400217 	ldw	r5,8(r4)
   83068:	d9c00104 	addi	r7,sp,4
   8306c:	100d883a 	mov	r6,r2
   83070:	00833d80 	call	833d8 <___vfprintf_internal_r>
   83074:	dfc00017 	ldw	ra,0(sp)
   83078:	dec00304 	addi	sp,sp,12
   8307c:	f800283a 	ret

00083080 <printf>:
   83080:	defffc04 	addi	sp,sp,-16
   83084:	dfc00015 	stw	ra,0(sp)
   83088:	d9400115 	stw	r5,4(sp)
   8308c:	d9800215 	stw	r6,8(sp)
   83090:	d9c00315 	stw	r7,12(sp)
   83094:	00800274 	movhi	r2,9
   83098:	1090c504 	addi	r2,r2,17172
   8309c:	10800017 	ldw	r2,0(r2)
   830a0:	200b883a 	mov	r5,r4
   830a4:	d9800104 	addi	r6,sp,4
   830a8:	11000217 	ldw	r4,8(r2)
   830ac:	00855d00 	call	855d0 <__vfprintf_internal>
   830b0:	dfc00017 	ldw	ra,0(sp)
   830b4:	dec00404 	addi	sp,sp,16
   830b8:	f800283a 	ret

000830bc <_putchar_r>:
   830bc:	21800217 	ldw	r6,8(r4)
   830c0:	0088c181 	jmpi	88c18 <_putc_r>

000830c4 <putchar>:
   830c4:	00800274 	movhi	r2,9
   830c8:	1090c504 	addi	r2,r2,17172
   830cc:	200b883a 	mov	r5,r4
   830d0:	11000017 	ldw	r4,0(r2)
   830d4:	21800217 	ldw	r6,8(r4)
   830d8:	0088c181 	jmpi	88c18 <_putc_r>

000830dc <_puts_r>:
   830dc:	defff604 	addi	sp,sp,-40
   830e0:	dc000715 	stw	r16,28(sp)
   830e4:	2021883a 	mov	r16,r4
   830e8:	2809883a 	mov	r4,r5
   830ec:	dc400815 	stw	r17,32(sp)
   830f0:	dfc00915 	stw	ra,36(sp)
   830f4:	2823883a 	mov	r17,r5
   830f8:	00833400 	call	83340 <strlen>
   830fc:	10c00044 	addi	r3,r2,1
   83100:	d8800115 	stw	r2,4(sp)
   83104:	00800274 	movhi	r2,9
   83108:	10883b04 	addi	r2,r2,8428
   8310c:	d8800215 	stw	r2,8(sp)
   83110:	00800044 	movi	r2,1
   83114:	d8800315 	stw	r2,12(sp)
   83118:	00800084 	movi	r2,2
   8311c:	dc400015 	stw	r17,0(sp)
   83120:	d8c00615 	stw	r3,24(sp)
   83124:	dec00415 	stw	sp,16(sp)
   83128:	d8800515 	stw	r2,20(sp)
   8312c:	80000226 	beq	r16,zero,83138 <_puts_r+0x5c>
   83130:	80800e17 	ldw	r2,56(r16)
   83134:	10001426 	beq	r2,zero,83188 <_puts_r+0xac>
   83138:	81400217 	ldw	r5,8(r16)
   8313c:	2880030b 	ldhu	r2,12(r5)
   83140:	10c8000c 	andi	r3,r2,8192
   83144:	1800061e 	bne	r3,zero,83160 <_puts_r+0x84>
   83148:	29001917 	ldw	r4,100(r5)
   8314c:	00f7ffc4 	movi	r3,-8193
   83150:	10880014 	ori	r2,r2,8192
   83154:	20c6703a 	and	r3,r4,r3
   83158:	2880030d 	sth	r2,12(r5)
   8315c:	28c01915 	stw	r3,100(r5)
   83160:	d9800404 	addi	r6,sp,16
   83164:	8009883a 	mov	r4,r16
   83168:	008723c0 	call	8723c <__sfvwrite_r>
   8316c:	1000091e 	bne	r2,zero,83194 <_puts_r+0xb8>
   83170:	00800284 	movi	r2,10
   83174:	dfc00917 	ldw	ra,36(sp)
   83178:	dc400817 	ldw	r17,32(sp)
   8317c:	dc000717 	ldw	r16,28(sp)
   83180:	dec00a04 	addi	sp,sp,40
   83184:	f800283a 	ret
   83188:	8009883a 	mov	r4,r16
   8318c:	0081f8c0 	call	81f8c <__sinit>
   83190:	003fe906 	br	83138 <rx_descriptor_end+0xfff830d8>
   83194:	00bfffc4 	movi	r2,-1
   83198:	003ff606 	br	83174 <rx_descriptor_end+0xfff83114>

0008319c <puts>:
   8319c:	00800274 	movhi	r2,9
   831a0:	1090c504 	addi	r2,r2,17172
   831a4:	200b883a 	mov	r5,r4
   831a8:	11000017 	ldw	r4,0(r2)
   831ac:	00830dc1 	jmpi	830dc <_puts_r>

000831b0 <_sbrk_r>:
   831b0:	defffd04 	addi	sp,sp,-12
   831b4:	dc000015 	stw	r16,0(sp)
   831b8:	04000274 	movhi	r16,9
   831bc:	dc400115 	stw	r17,4(sp)
   831c0:	8418bd04 	addi	r16,r16,25332
   831c4:	2023883a 	mov	r17,r4
   831c8:	2809883a 	mov	r4,r5
   831cc:	dfc00215 	stw	ra,8(sp)
   831d0:	80000015 	stw	zero,0(r16)
   831d4:	008ee740 	call	8ee74 <sbrk>
   831d8:	00ffffc4 	movi	r3,-1
   831dc:	10c00526 	beq	r2,r3,831f4 <_sbrk_r+0x44>
   831e0:	dfc00217 	ldw	ra,8(sp)
   831e4:	dc400117 	ldw	r17,4(sp)
   831e8:	dc000017 	ldw	r16,0(sp)
   831ec:	dec00304 	addi	sp,sp,12
   831f0:	f800283a 	ret
   831f4:	80c00017 	ldw	r3,0(r16)
   831f8:	183ff926 	beq	r3,zero,831e0 <rx_descriptor_end+0xfff83180>
   831fc:	88c00015 	stw	r3,0(r17)
   83200:	003ff706 	br	831e0 <rx_descriptor_end+0xfff83180>

00083204 <__sread>:
   83204:	defffe04 	addi	sp,sp,-8
   83208:	dc000015 	stw	r16,0(sp)
   8320c:	2821883a 	mov	r16,r5
   83210:	2940038f 	ldh	r5,14(r5)
   83214:	dfc00115 	stw	ra,4(sp)
   83218:	0088d800 	call	88d80 <_read_r>
   8321c:	10000716 	blt	r2,zero,8323c <__sread+0x38>
   83220:	80c01417 	ldw	r3,80(r16)
   83224:	1887883a 	add	r3,r3,r2
   83228:	80c01415 	stw	r3,80(r16)
   8322c:	dfc00117 	ldw	ra,4(sp)
   83230:	dc000017 	ldw	r16,0(sp)
   83234:	dec00204 	addi	sp,sp,8
   83238:	f800283a 	ret
   8323c:	80c0030b 	ldhu	r3,12(r16)
   83240:	18fbffcc 	andi	r3,r3,61439
   83244:	80c0030d 	sth	r3,12(r16)
   83248:	dfc00117 	ldw	ra,4(sp)
   8324c:	dc000017 	ldw	r16,0(sp)
   83250:	dec00204 	addi	sp,sp,8
   83254:	f800283a 	ret

00083258 <__seofread>:
   83258:	0005883a 	mov	r2,zero
   8325c:	f800283a 	ret

00083260 <__swrite>:
   83260:	2880030b 	ldhu	r2,12(r5)
   83264:	defffb04 	addi	sp,sp,-20
   83268:	dcc00315 	stw	r19,12(sp)
   8326c:	dc800215 	stw	r18,8(sp)
   83270:	dc400115 	stw	r17,4(sp)
   83274:	dc000015 	stw	r16,0(sp)
   83278:	dfc00415 	stw	ra,16(sp)
   8327c:	10c0400c 	andi	r3,r2,256
   83280:	2821883a 	mov	r16,r5
   83284:	2023883a 	mov	r17,r4
   83288:	3025883a 	mov	r18,r6
   8328c:	3827883a 	mov	r19,r7
   83290:	18000526 	beq	r3,zero,832a8 <__swrite+0x48>
   83294:	2940038f 	ldh	r5,14(r5)
   83298:	01c00084 	movi	r7,2
   8329c:	000d883a 	mov	r6,zero
   832a0:	00877d40 	call	877d4 <_lseek_r>
   832a4:	8080030b 	ldhu	r2,12(r16)
   832a8:	8140038f 	ldh	r5,14(r16)
   832ac:	10bbffcc 	andi	r2,r2,61439
   832b0:	980f883a 	mov	r7,r19
   832b4:	900d883a 	mov	r6,r18
   832b8:	8809883a 	mov	r4,r17
   832bc:	8080030d 	sth	r2,12(r16)
   832c0:	dfc00417 	ldw	ra,16(sp)
   832c4:	dcc00317 	ldw	r19,12(sp)
   832c8:	dc800217 	ldw	r18,8(sp)
   832cc:	dc400117 	ldw	r17,4(sp)
   832d0:	dc000017 	ldw	r16,0(sp)
   832d4:	dec00504 	addi	sp,sp,20
   832d8:	00856a81 	jmpi	856a8 <_write_r>

000832dc <__sseek>:
   832dc:	defffe04 	addi	sp,sp,-8
   832e0:	dc000015 	stw	r16,0(sp)
   832e4:	2821883a 	mov	r16,r5
   832e8:	2940038f 	ldh	r5,14(r5)
   832ec:	dfc00115 	stw	ra,4(sp)
   832f0:	00877d40 	call	877d4 <_lseek_r>
   832f4:	00ffffc4 	movi	r3,-1
   832f8:	10c00826 	beq	r2,r3,8331c <__sseek+0x40>
   832fc:	80c0030b 	ldhu	r3,12(r16)
   83300:	80801415 	stw	r2,80(r16)
   83304:	18c40014 	ori	r3,r3,4096
   83308:	80c0030d 	sth	r3,12(r16)
   8330c:	dfc00117 	ldw	ra,4(sp)
   83310:	dc000017 	ldw	r16,0(sp)
   83314:	dec00204 	addi	sp,sp,8
   83318:	f800283a 	ret
   8331c:	80c0030b 	ldhu	r3,12(r16)
   83320:	18fbffcc 	andi	r3,r3,61439
   83324:	80c0030d 	sth	r3,12(r16)
   83328:	dfc00117 	ldw	ra,4(sp)
   8332c:	dc000017 	ldw	r16,0(sp)
   83330:	dec00204 	addi	sp,sp,8
   83334:	f800283a 	ret

00083338 <__sclose>:
   83338:	2940038f 	ldh	r5,14(r5)
   8333c:	008585c1 	jmpi	8585c <_close_r>

00083340 <strlen>:
   83340:	208000cc 	andi	r2,r4,3
   83344:	10002026 	beq	r2,zero,833c8 <strlen+0x88>
   83348:	20800007 	ldb	r2,0(r4)
   8334c:	10002026 	beq	r2,zero,833d0 <strlen+0x90>
   83350:	2005883a 	mov	r2,r4
   83354:	00000206 	br	83360 <strlen+0x20>
   83358:	10c00007 	ldb	r3,0(r2)
   8335c:	18001826 	beq	r3,zero,833c0 <strlen+0x80>
   83360:	10800044 	addi	r2,r2,1
   83364:	10c000cc 	andi	r3,r2,3
   83368:	183ffb1e 	bne	r3,zero,83358 <rx_descriptor_end+0xfff832f8>
   8336c:	10c00017 	ldw	r3,0(r2)
   83370:	01ffbff4 	movhi	r7,65279
   83374:	39ffbfc4 	addi	r7,r7,-257
   83378:	00ca303a 	nor	r5,zero,r3
   8337c:	01a02074 	movhi	r6,32897
   83380:	19c7883a 	add	r3,r3,r7
   83384:	31a02004 	addi	r6,r6,-32640
   83388:	1946703a 	and	r3,r3,r5
   8338c:	1986703a 	and	r3,r3,r6
   83390:	1800091e 	bne	r3,zero,833b8 <strlen+0x78>
   83394:	10800104 	addi	r2,r2,4
   83398:	10c00017 	ldw	r3,0(r2)
   8339c:	19cb883a 	add	r5,r3,r7
   833a0:	00c6303a 	nor	r3,zero,r3
   833a4:	28c6703a 	and	r3,r5,r3
   833a8:	1986703a 	and	r3,r3,r6
   833ac:	183ff926 	beq	r3,zero,83394 <rx_descriptor_end+0xfff83334>
   833b0:	00000106 	br	833b8 <strlen+0x78>
   833b4:	10800044 	addi	r2,r2,1
   833b8:	10c00007 	ldb	r3,0(r2)
   833bc:	183ffd1e 	bne	r3,zero,833b4 <rx_descriptor_end+0xfff83354>
   833c0:	1105c83a 	sub	r2,r2,r4
   833c4:	f800283a 	ret
   833c8:	2005883a 	mov	r2,r4
   833cc:	003fe706 	br	8336c <rx_descriptor_end+0xfff8330c>
   833d0:	0005883a 	mov	r2,zero
   833d4:	f800283a 	ret

000833d8 <___vfprintf_internal_r>:
   833d8:	deffb804 	addi	sp,sp,-288
   833dc:	dfc04715 	stw	ra,284(sp)
   833e0:	ddc04515 	stw	r23,276(sp)
   833e4:	dd404315 	stw	r21,268(sp)
   833e8:	d9002c15 	stw	r4,176(sp)
   833ec:	282f883a 	mov	r23,r5
   833f0:	302b883a 	mov	r21,r6
   833f4:	d9c02d15 	stw	r7,180(sp)
   833f8:	df004615 	stw	fp,280(sp)
   833fc:	dd804415 	stw	r22,272(sp)
   83400:	dd004215 	stw	r20,264(sp)
   83404:	dcc04115 	stw	r19,260(sp)
   83408:	dc804015 	stw	r18,256(sp)
   8340c:	dc403f15 	stw	r17,252(sp)
   83410:	dc003e15 	stw	r16,248(sp)
   83414:	00877a40 	call	877a4 <_localeconv_r>
   83418:	10800017 	ldw	r2,0(r2)
   8341c:	1009883a 	mov	r4,r2
   83420:	d8803415 	stw	r2,208(sp)
   83424:	00833400 	call	83340 <strlen>
   83428:	d8803715 	stw	r2,220(sp)
   8342c:	d8802c17 	ldw	r2,176(sp)
   83430:	10000226 	beq	r2,zero,8343c <___vfprintf_internal_r+0x64>
   83434:	10800e17 	ldw	r2,56(r2)
   83438:	1000f926 	beq	r2,zero,83820 <___vfprintf_internal_r+0x448>
   8343c:	b880030b 	ldhu	r2,12(r23)
   83440:	10c8000c 	andi	r3,r2,8192
   83444:	1800061e 	bne	r3,zero,83460 <___vfprintf_internal_r+0x88>
   83448:	b9001917 	ldw	r4,100(r23)
   8344c:	00f7ffc4 	movi	r3,-8193
   83450:	10880014 	ori	r2,r2,8192
   83454:	20c6703a 	and	r3,r4,r3
   83458:	b880030d 	sth	r2,12(r23)
   8345c:	b8c01915 	stw	r3,100(r23)
   83460:	10c0020c 	andi	r3,r2,8
   83464:	1800c126 	beq	r3,zero,8376c <___vfprintf_internal_r+0x394>
   83468:	b8c00417 	ldw	r3,16(r23)
   8346c:	1800bf26 	beq	r3,zero,8376c <___vfprintf_internal_r+0x394>
   83470:	1080068c 	andi	r2,r2,26
   83474:	00c00284 	movi	r3,10
   83478:	10c0c426 	beq	r2,r3,8378c <___vfprintf_internal_r+0x3b4>
   8347c:	d8c00404 	addi	r3,sp,16
   83480:	05000274 	movhi	r20,9
   83484:	d9001e04 	addi	r4,sp,120
   83488:	a5084c84 	addi	r20,r20,8498
   8348c:	d8c01e15 	stw	r3,120(sp)
   83490:	d8002015 	stw	zero,128(sp)
   83494:	d8001f15 	stw	zero,124(sp)
   83498:	d8003315 	stw	zero,204(sp)
   8349c:	d8003615 	stw	zero,216(sp)
   834a0:	d8003815 	stw	zero,224(sp)
   834a4:	1811883a 	mov	r8,r3
   834a8:	d8003915 	stw	zero,228(sp)
   834ac:	d8003a15 	stw	zero,232(sp)
   834b0:	d8002f15 	stw	zero,188(sp)
   834b4:	d9002815 	stw	r4,160(sp)
   834b8:	a8800007 	ldb	r2,0(r21)
   834bc:	10027b26 	beq	r2,zero,83eac <___vfprintf_internal_r+0xad4>
   834c0:	00c00944 	movi	r3,37
   834c4:	a821883a 	mov	r16,r21
   834c8:	10c0021e 	bne	r2,r3,834d4 <___vfprintf_internal_r+0xfc>
   834cc:	00001406 	br	83520 <___vfprintf_internal_r+0x148>
   834d0:	10c00326 	beq	r2,r3,834e0 <___vfprintf_internal_r+0x108>
   834d4:	84000044 	addi	r16,r16,1
   834d8:	80800007 	ldb	r2,0(r16)
   834dc:	103ffc1e 	bne	r2,zero,834d0 <rx_descriptor_end+0xfff83470>
   834e0:	8563c83a 	sub	r17,r16,r21
   834e4:	88000e26 	beq	r17,zero,83520 <___vfprintf_internal_r+0x148>
   834e8:	d8c02017 	ldw	r3,128(sp)
   834ec:	d8801f17 	ldw	r2,124(sp)
   834f0:	45400015 	stw	r21,0(r8)
   834f4:	1c47883a 	add	r3,r3,r17
   834f8:	10800044 	addi	r2,r2,1
   834fc:	d8c02015 	stw	r3,128(sp)
   83500:	44400115 	stw	r17,4(r8)
   83504:	d8801f15 	stw	r2,124(sp)
   83508:	00c001c4 	movi	r3,7
   8350c:	1880a716 	blt	r3,r2,837ac <___vfprintf_internal_r+0x3d4>
   83510:	42000204 	addi	r8,r8,8
   83514:	d9402f17 	ldw	r5,188(sp)
   83518:	2c4b883a 	add	r5,r5,r17
   8351c:	d9402f15 	stw	r5,188(sp)
   83520:	80800007 	ldb	r2,0(r16)
   83524:	1000a826 	beq	r2,zero,837c8 <___vfprintf_internal_r+0x3f0>
   83528:	84400047 	ldb	r17,1(r16)
   8352c:	00bfffc4 	movi	r2,-1
   83530:	85400044 	addi	r21,r16,1
   83534:	d8002785 	stb	zero,158(sp)
   83538:	0007883a 	mov	r3,zero
   8353c:	000f883a 	mov	r7,zero
   83540:	d8802915 	stw	r2,164(sp)
   83544:	d8003115 	stw	zero,196(sp)
   83548:	0025883a 	mov	r18,zero
   8354c:	01401604 	movi	r5,88
   83550:	01800244 	movi	r6,9
   83554:	02800a84 	movi	r10,42
   83558:	02401b04 	movi	r9,108
   8355c:	ad400044 	addi	r21,r21,1
   83560:	88bff804 	addi	r2,r17,-32
   83564:	28830436 	bltu	r5,r2,84178 <___vfprintf_internal_r+0xda0>
   83568:	100490ba 	slli	r2,r2,2
   8356c:	01000234 	movhi	r4,8
   83570:	210d6004 	addi	r4,r4,13696
   83574:	1105883a 	add	r2,r2,r4
   83578:	10800017 	ldw	r2,0(r2)
   8357c:	1000683a 	jmp	r2
   83580:	00084098 	cmpnei	zero,zero,8450
   83584:	00084178 	rdprs	zero,zero,8453
   83588:	00084178 	rdprs	zero,zero,8453
   8358c:	000840b8 	rdprs	zero,zero,8450
   83590:	00084178 	rdprs	zero,zero,8453
   83594:	00084178 	rdprs	zero,zero,8453
   83598:	00084178 	rdprs	zero,zero,8453
   8359c:	00084178 	rdprs	zero,zero,8453
   835a0:	00084178 	rdprs	zero,zero,8453
   835a4:	00084178 	rdprs	zero,zero,8453
   835a8:	0008382c 	andhi	zero,zero,8416
   835ac:	00083fd4 	movui	zero,8447
   835b0:	00084178 	rdprs	zero,zero,8453
   835b4:	000836f4 	movhi	zero,8411
   835b8:	00083854 	movui	zero,8417
   835bc:	00084178 	rdprs	zero,zero,8453
   835c0:	00083894 	movui	zero,8418
   835c4:	000838a0 	cmpeqi	zero,zero,8418
   835c8:	000838a0 	cmpeqi	zero,zero,8418
   835cc:	000838a0 	cmpeqi	zero,zero,8418
   835d0:	000838a0 	cmpeqi	zero,zero,8418
   835d4:	000838a0 	cmpeqi	zero,zero,8418
   835d8:	000838a0 	cmpeqi	zero,zero,8418
   835dc:	000838a0 	cmpeqi	zero,zero,8418
   835e0:	000838a0 	cmpeqi	zero,zero,8418
   835e4:	000838a0 	cmpeqi	zero,zero,8418
   835e8:	00084178 	rdprs	zero,zero,8453
   835ec:	00084178 	rdprs	zero,zero,8453
   835f0:	00084178 	rdprs	zero,zero,8453
   835f4:	00084178 	rdprs	zero,zero,8453
   835f8:	00084178 	rdprs	zero,zero,8453
   835fc:	00084178 	rdprs	zero,zero,8453
   83600:	00084178 	rdprs	zero,zero,8453
   83604:	00084178 	rdprs	zero,zero,8453
   83608:	00084178 	rdprs	zero,zero,8453
   8360c:	00084178 	rdprs	zero,zero,8453
   83610:	000838d4 	movui	zero,8419
   83614:	00083990 	cmplti	zero,zero,8422
   83618:	00084178 	rdprs	zero,zero,8453
   8361c:	00083990 	cmplti	zero,zero,8422
   83620:	00084178 	rdprs	zero,zero,8453
   83624:	00084178 	rdprs	zero,zero,8453
   83628:	00084178 	rdprs	zero,zero,8453
   8362c:	00084178 	rdprs	zero,zero,8453
   83630:	00083a30 	cmpltui	zero,zero,8424
   83634:	00084178 	rdprs	zero,zero,8453
   83638:	00084178 	rdprs	zero,zero,8453
   8363c:	00083a3c 	xorhi	zero,zero,8424
   83640:	00084178 	rdprs	zero,zero,8453
   83644:	00084178 	rdprs	zero,zero,8453
   83648:	00084178 	rdprs	zero,zero,8453
   8364c:	00084178 	rdprs	zero,zero,8453
   83650:	00084178 	rdprs	zero,zero,8453
   83654:	00083eb4 	movhi	zero,8442
   83658:	00084178 	rdprs	zero,zero,8453
   8365c:	00084178 	rdprs	zero,zero,8453
   83660:	00083f14 	movui	zero,8444
   83664:	00084178 	rdprs	zero,zero,8453
   83668:	00084178 	rdprs	zero,zero,8453
   8366c:	00084178 	rdprs	zero,zero,8453
   83670:	00084178 	rdprs	zero,zero,8453
   83674:	00084178 	rdprs	zero,zero,8453
   83678:	00084178 	rdprs	zero,zero,8453
   8367c:	00084178 	rdprs	zero,zero,8453
   83680:	00084178 	rdprs	zero,zero,8453
   83684:	00084178 	rdprs	zero,zero,8453
   83688:	00084178 	rdprs	zero,zero,8453
   8368c:	00084124 	muli	zero,zero,8452
   83690:	000840c4 	movi	zero,8451
   83694:	00083990 	cmplti	zero,zero,8422
   83698:	00083990 	cmplti	zero,zero,8422
   8369c:	00083990 	cmplti	zero,zero,8422
   836a0:	000840d4 	movui	zero,8451
   836a4:	000840c4 	movi	zero,8451
   836a8:	00084178 	rdprs	zero,zero,8453
   836ac:	00084178 	rdprs	zero,zero,8453
   836b0:	000840e0 	cmpeqi	zero,zero,8451
   836b4:	00084178 	rdprs	zero,zero,8453
   836b8:	000840f0 	cmpltui	zero,zero,8451
   836bc:	00083fc4 	movi	zero,8447
   836c0:	00083700 	call	8370 <__alt_mem_main_memory-0x77c90>
   836c4:	00083fe4 	muli	zero,zero,8447
   836c8:	00084178 	rdprs	zero,zero,8453
   836cc:	00083ff0 	cmpltui	zero,zero,8447
   836d0:	00084178 	rdprs	zero,zero,8453
   836d4:	0008404c 	andi	zero,zero,8449
   836d8:	00084178 	rdprs	zero,zero,8453
   836dc:	00084178 	rdprs	zero,zero,8453
   836e0:	0008405c 	xori	zero,zero,8449
   836e4:	d9003117 	ldw	r4,196(sp)
   836e8:	d8802d15 	stw	r2,180(sp)
   836ec:	0109c83a 	sub	r4,zero,r4
   836f0:	d9003115 	stw	r4,196(sp)
   836f4:	94800114 	ori	r18,r18,4
   836f8:	ac400007 	ldb	r17,0(r21)
   836fc:	003f9706 	br	8355c <rx_descriptor_end+0xfff834fc>
   83700:	00800c04 	movi	r2,48
   83704:	d9002d17 	ldw	r4,180(sp)
   83708:	d9402917 	ldw	r5,164(sp)
   8370c:	d8802705 	stb	r2,156(sp)
   83710:	00801e04 	movi	r2,120
   83714:	d8802745 	stb	r2,157(sp)
   83718:	d8002785 	stb	zero,158(sp)
   8371c:	20c00104 	addi	r3,r4,4
   83720:	24c00017 	ldw	r19,0(r4)
   83724:	002d883a 	mov	r22,zero
   83728:	90800094 	ori	r2,r18,2
   8372c:	28029a16 	blt	r5,zero,84198 <___vfprintf_internal_r+0xdc0>
   83730:	00bfdfc4 	movi	r2,-129
   83734:	90a4703a 	and	r18,r18,r2
   83738:	d8c02d15 	stw	r3,180(sp)
   8373c:	94800094 	ori	r18,r18,2
   83740:	9802871e 	bne	r19,zero,84160 <___vfprintf_internal_r+0xd88>
   83744:	00800274 	movhi	r2,9
   83748:	10884504 	addi	r2,r2,8468
   8374c:	d8803915 	stw	r2,228(sp)
   83750:	04401e04 	movi	r17,120
   83754:	d8802917 	ldw	r2,164(sp)
   83758:	0039883a 	mov	fp,zero
   8375c:	1001e926 	beq	r2,zero,83f04 <___vfprintf_internal_r+0xb2c>
   83760:	0027883a 	mov	r19,zero
   83764:	002d883a 	mov	r22,zero
   83768:	00020506 	br	83f80 <___vfprintf_internal_r+0xba8>
   8376c:	d9002c17 	ldw	r4,176(sp)
   83770:	b80b883a 	mov	r5,r23
   83774:	00857080 	call	85708 <__swsetup_r>
   83778:	1005ac1e 	bne	r2,zero,84e2c <___vfprintf_internal_r+0x1a54>
   8377c:	b880030b 	ldhu	r2,12(r23)
   83780:	00c00284 	movi	r3,10
   83784:	1080068c 	andi	r2,r2,26
   83788:	10ff3c1e 	bne	r2,r3,8347c <rx_descriptor_end+0xfff8341c>
   8378c:	b880038f 	ldh	r2,14(r23)
   83790:	103f3a16 	blt	r2,zero,8347c <rx_descriptor_end+0xfff8341c>
   83794:	d9c02d17 	ldw	r7,180(sp)
   83798:	d9002c17 	ldw	r4,176(sp)
   8379c:	a80d883a 	mov	r6,r21
   837a0:	b80b883a 	mov	r5,r23
   837a4:	00855ec0 	call	855ec <__sbprintf>
   837a8:	00001106 	br	837f0 <___vfprintf_internal_r+0x418>
   837ac:	d9002c17 	ldw	r4,176(sp)
   837b0:	d9801e04 	addi	r6,sp,120
   837b4:	b80b883a 	mov	r5,r23
   837b8:	00895900 	call	89590 <__sprint_r>
   837bc:	1000081e 	bne	r2,zero,837e0 <___vfprintf_internal_r+0x408>
   837c0:	da000404 	addi	r8,sp,16
   837c4:	003f5306 	br	83514 <rx_descriptor_end+0xfff834b4>
   837c8:	d8802017 	ldw	r2,128(sp)
   837cc:	10000426 	beq	r2,zero,837e0 <___vfprintf_internal_r+0x408>
   837d0:	d9002c17 	ldw	r4,176(sp)
   837d4:	d9801e04 	addi	r6,sp,120
   837d8:	b80b883a 	mov	r5,r23
   837dc:	00895900 	call	89590 <__sprint_r>
   837e0:	b880030b 	ldhu	r2,12(r23)
   837e4:	1080100c 	andi	r2,r2,64
   837e8:	1005901e 	bne	r2,zero,84e2c <___vfprintf_internal_r+0x1a54>
   837ec:	d8802f17 	ldw	r2,188(sp)
   837f0:	dfc04717 	ldw	ra,284(sp)
   837f4:	df004617 	ldw	fp,280(sp)
   837f8:	ddc04517 	ldw	r23,276(sp)
   837fc:	dd804417 	ldw	r22,272(sp)
   83800:	dd404317 	ldw	r21,268(sp)
   83804:	dd004217 	ldw	r20,264(sp)
   83808:	dcc04117 	ldw	r19,260(sp)
   8380c:	dc804017 	ldw	r18,256(sp)
   83810:	dc403f17 	ldw	r17,252(sp)
   83814:	dc003e17 	ldw	r16,248(sp)
   83818:	dec04804 	addi	sp,sp,288
   8381c:	f800283a 	ret
   83820:	d9002c17 	ldw	r4,176(sp)
   83824:	0081f8c0 	call	81f8c <__sinit>
   83828:	003f0406 	br	8343c <rx_descriptor_end+0xfff833dc>
   8382c:	d8802d17 	ldw	r2,180(sp)
   83830:	d9002d17 	ldw	r4,180(sp)
   83834:	10800017 	ldw	r2,0(r2)
   83838:	d8803115 	stw	r2,196(sp)
   8383c:	20800104 	addi	r2,r4,4
   83840:	d9003117 	ldw	r4,196(sp)
   83844:	203fa716 	blt	r4,zero,836e4 <rx_descriptor_end+0xfff83684>
   83848:	d8802d15 	stw	r2,180(sp)
   8384c:	ac400007 	ldb	r17,0(r21)
   83850:	003f4206 	br	8355c <rx_descriptor_end+0xfff834fc>
   83854:	ac400007 	ldb	r17,0(r21)
   83858:	aac00044 	addi	r11,r21,1
   8385c:	8a872826 	beq	r17,r10,85500 <___vfprintf_internal_r+0x2128>
   83860:	88bff404 	addi	r2,r17,-48
   83864:	0009883a 	mov	r4,zero
   83868:	30867d36 	bltu	r6,r2,85260 <___vfprintf_internal_r+0x1e88>
   8386c:	5c400007 	ldb	r17,0(r11)
   83870:	210002a4 	muli	r4,r4,10
   83874:	5d400044 	addi	r21,r11,1
   83878:	a817883a 	mov	r11,r21
   8387c:	2089883a 	add	r4,r4,r2
   83880:	88bff404 	addi	r2,r17,-48
   83884:	30bff92e 	bgeu	r6,r2,8386c <rx_descriptor_end+0xfff8380c>
   83888:	2005c916 	blt	r4,zero,84fb0 <___vfprintf_internal_r+0x1bd8>
   8388c:	d9002915 	stw	r4,164(sp)
   83890:	003f3306 	br	83560 <rx_descriptor_end+0xfff83500>
   83894:	94802014 	ori	r18,r18,128
   83898:	ac400007 	ldb	r17,0(r21)
   8389c:	003f2f06 	br	8355c <rx_descriptor_end+0xfff834fc>
   838a0:	a809883a 	mov	r4,r21
   838a4:	d8003115 	stw	zero,196(sp)
   838a8:	88bff404 	addi	r2,r17,-48
   838ac:	0017883a 	mov	r11,zero
   838b0:	24400007 	ldb	r17,0(r4)
   838b4:	5ac002a4 	muli	r11,r11,10
   838b8:	ad400044 	addi	r21,r21,1
   838bc:	a809883a 	mov	r4,r21
   838c0:	12d7883a 	add	r11,r2,r11
   838c4:	88bff404 	addi	r2,r17,-48
   838c8:	30bff92e 	bgeu	r6,r2,838b0 <rx_descriptor_end+0xfff83850>
   838cc:	dac03115 	stw	r11,196(sp)
   838d0:	003f2306 	br	83560 <rx_descriptor_end+0xfff83500>
   838d4:	18c03fcc 	andi	r3,r3,255
   838d8:	18072b1e 	bne	r3,zero,85588 <___vfprintf_internal_r+0x21b0>
   838dc:	94800414 	ori	r18,r18,16
   838e0:	9080080c 	andi	r2,r18,32
   838e4:	10037b26 	beq	r2,zero,846d4 <___vfprintf_internal_r+0x12fc>
   838e8:	d9402d17 	ldw	r5,180(sp)
   838ec:	28800117 	ldw	r2,4(r5)
   838f0:	2cc00017 	ldw	r19,0(r5)
   838f4:	29400204 	addi	r5,r5,8
   838f8:	d9402d15 	stw	r5,180(sp)
   838fc:	102d883a 	mov	r22,r2
   83900:	10044b16 	blt	r2,zero,84a30 <___vfprintf_internal_r+0x1658>
   83904:	d9402917 	ldw	r5,164(sp)
   83908:	df002783 	ldbu	fp,158(sp)
   8390c:	2803bc16 	blt	r5,zero,84800 <___vfprintf_internal_r+0x1428>
   83910:	00ffdfc4 	movi	r3,-129
   83914:	9d84b03a 	or	r2,r19,r22
   83918:	90e4703a 	and	r18,r18,r3
   8391c:	10017726 	beq	r2,zero,83efc <___vfprintf_internal_r+0xb24>
   83920:	b0038326 	beq	r22,zero,84730 <___vfprintf_internal_r+0x1358>
   83924:	dc402a15 	stw	r17,168(sp)
   83928:	dc001e04 	addi	r16,sp,120
   8392c:	b023883a 	mov	r17,r22
   83930:	402d883a 	mov	r22,r8
   83934:	9809883a 	mov	r4,r19
   83938:	880b883a 	mov	r5,r17
   8393c:	01800284 	movi	r6,10
   83940:	000f883a 	mov	r7,zero
   83944:	008b7100 	call	8b710 <__umoddi3>
   83948:	10800c04 	addi	r2,r2,48
   8394c:	843fffc4 	addi	r16,r16,-1
   83950:	9809883a 	mov	r4,r19
   83954:	880b883a 	mov	r5,r17
   83958:	80800005 	stb	r2,0(r16)
   8395c:	01800284 	movi	r6,10
   83960:	000f883a 	mov	r7,zero
   83964:	008b1980 	call	8b198 <__udivdi3>
   83968:	1027883a 	mov	r19,r2
   8396c:	10c4b03a 	or	r2,r2,r3
   83970:	1823883a 	mov	r17,r3
   83974:	103fef1e 	bne	r2,zero,83934 <rx_descriptor_end+0xfff838d4>
   83978:	d8c02817 	ldw	r3,160(sp)
   8397c:	dc402a17 	ldw	r17,168(sp)
   83980:	b011883a 	mov	r8,r22
   83984:	1c07c83a 	sub	r3,r3,r16
   83988:	d8c02e15 	stw	r3,184(sp)
   8398c:	00005906 	br	83af4 <___vfprintf_internal_r+0x71c>
   83990:	18c03fcc 	andi	r3,r3,255
   83994:	1806fa1e 	bne	r3,zero,85580 <___vfprintf_internal_r+0x21a8>
   83998:	9080020c 	andi	r2,r18,8
   8399c:	10048a26 	beq	r2,zero,84bc8 <___vfprintf_internal_r+0x17f0>
   839a0:	d8c02d17 	ldw	r3,180(sp)
   839a4:	d9002d17 	ldw	r4,180(sp)
   839a8:	d9402d17 	ldw	r5,180(sp)
   839ac:	18c00017 	ldw	r3,0(r3)
   839b0:	21000117 	ldw	r4,4(r4)
   839b4:	29400204 	addi	r5,r5,8
   839b8:	d8c03615 	stw	r3,216(sp)
   839bc:	d9003815 	stw	r4,224(sp)
   839c0:	d9402d15 	stw	r5,180(sp)
   839c4:	d9003617 	ldw	r4,216(sp)
   839c8:	d9403817 	ldw	r5,224(sp)
   839cc:	da003d15 	stw	r8,244(sp)
   839d0:	04000044 	movi	r16,1
   839d4:	00893440 	call	89344 <__fpclassifyd>
   839d8:	da003d17 	ldw	r8,244(sp)
   839dc:	14041f1e 	bne	r2,r16,84a5c <___vfprintf_internal_r+0x1684>
   839e0:	d9003617 	ldw	r4,216(sp)
   839e4:	d9403817 	ldw	r5,224(sp)
   839e8:	000d883a 	mov	r6,zero
   839ec:	000f883a 	mov	r7,zero
   839f0:	008d0f40 	call	8d0f4 <__ledf2>
   839f4:	da003d17 	ldw	r8,244(sp)
   839f8:	1005be16 	blt	r2,zero,850f4 <___vfprintf_internal_r+0x1d1c>
   839fc:	df002783 	ldbu	fp,158(sp)
   83a00:	008011c4 	movi	r2,71
   83a04:	1445330e 	bge	r2,r17,84ed4 <___vfprintf_internal_r+0x1afc>
   83a08:	04000274 	movhi	r16,9
   83a0c:	84083d04 	addi	r16,r16,8436
   83a10:	00c000c4 	movi	r3,3
   83a14:	00bfdfc4 	movi	r2,-129
   83a18:	d8c02a15 	stw	r3,168(sp)
   83a1c:	90a4703a 	and	r18,r18,r2
   83a20:	d8c02e15 	stw	r3,184(sp)
   83a24:	d8002915 	stw	zero,164(sp)
   83a28:	d8003215 	stw	zero,200(sp)
   83a2c:	00003706 	br	83b0c <___vfprintf_internal_r+0x734>
   83a30:	94800214 	ori	r18,r18,8
   83a34:	ac400007 	ldb	r17,0(r21)
   83a38:	003ec806 	br	8355c <rx_descriptor_end+0xfff834fc>
   83a3c:	18c03fcc 	andi	r3,r3,255
   83a40:	1806db1e 	bne	r3,zero,855b0 <___vfprintf_internal_r+0x21d8>
   83a44:	94800414 	ori	r18,r18,16
   83a48:	9080080c 	andi	r2,r18,32
   83a4c:	1002d826 	beq	r2,zero,845b0 <___vfprintf_internal_r+0x11d8>
   83a50:	d9402d17 	ldw	r5,180(sp)
   83a54:	d8c02917 	ldw	r3,164(sp)
   83a58:	d8002785 	stb	zero,158(sp)
   83a5c:	28800204 	addi	r2,r5,8
   83a60:	2cc00017 	ldw	r19,0(r5)
   83a64:	2d800117 	ldw	r22,4(r5)
   83a68:	18048f16 	blt	r3,zero,84ca8 <___vfprintf_internal_r+0x18d0>
   83a6c:	013fdfc4 	movi	r4,-129
   83a70:	9d86b03a 	or	r3,r19,r22
   83a74:	d8802d15 	stw	r2,180(sp)
   83a78:	9124703a 	and	r18,r18,r4
   83a7c:	1802d91e 	bne	r3,zero,845e4 <___vfprintf_internal_r+0x120c>
   83a80:	d8c02917 	ldw	r3,164(sp)
   83a84:	0039883a 	mov	fp,zero
   83a88:	1805c326 	beq	r3,zero,85198 <___vfprintf_internal_r+0x1dc0>
   83a8c:	0027883a 	mov	r19,zero
   83a90:	002d883a 	mov	r22,zero
   83a94:	dc001e04 	addi	r16,sp,120
   83a98:	9806d0fa 	srli	r3,r19,3
   83a9c:	b008977a 	slli	r4,r22,29
   83aa0:	b02cd0fa 	srli	r22,r22,3
   83aa4:	9cc001cc 	andi	r19,r19,7
   83aa8:	98800c04 	addi	r2,r19,48
   83aac:	843fffc4 	addi	r16,r16,-1
   83ab0:	20e6b03a 	or	r19,r4,r3
   83ab4:	80800005 	stb	r2,0(r16)
   83ab8:	9d86b03a 	or	r3,r19,r22
   83abc:	183ff61e 	bne	r3,zero,83a98 <rx_descriptor_end+0xfff83a38>
   83ac0:	90c0004c 	andi	r3,r18,1
   83ac4:	18013b26 	beq	r3,zero,83fb4 <___vfprintf_internal_r+0xbdc>
   83ac8:	10803fcc 	andi	r2,r2,255
   83acc:	1080201c 	xori	r2,r2,128
   83ad0:	10bfe004 	addi	r2,r2,-128
   83ad4:	00c00c04 	movi	r3,48
   83ad8:	10c13626 	beq	r2,r3,83fb4 <___vfprintf_internal_r+0xbdc>
   83adc:	80ffffc5 	stb	r3,-1(r16)
   83ae0:	d8c02817 	ldw	r3,160(sp)
   83ae4:	80bfffc4 	addi	r2,r16,-1
   83ae8:	1021883a 	mov	r16,r2
   83aec:	1887c83a 	sub	r3,r3,r2
   83af0:	d8c02e15 	stw	r3,184(sp)
   83af4:	d8802e17 	ldw	r2,184(sp)
   83af8:	d9002917 	ldw	r4,164(sp)
   83afc:	1100010e 	bge	r2,r4,83b04 <___vfprintf_internal_r+0x72c>
   83b00:	2005883a 	mov	r2,r4
   83b04:	d8802a15 	stw	r2,168(sp)
   83b08:	d8003215 	stw	zero,200(sp)
   83b0c:	e7003fcc 	andi	fp,fp,255
   83b10:	e700201c 	xori	fp,fp,128
   83b14:	e73fe004 	addi	fp,fp,-128
   83b18:	e0000326 	beq	fp,zero,83b28 <___vfprintf_internal_r+0x750>
   83b1c:	d8c02a17 	ldw	r3,168(sp)
   83b20:	18c00044 	addi	r3,r3,1
   83b24:	d8c02a15 	stw	r3,168(sp)
   83b28:	90c0008c 	andi	r3,r18,2
   83b2c:	d8c02b15 	stw	r3,172(sp)
   83b30:	18000326 	beq	r3,zero,83b40 <___vfprintf_internal_r+0x768>
   83b34:	d8c02a17 	ldw	r3,168(sp)
   83b38:	18c00084 	addi	r3,r3,2
   83b3c:	d8c02a15 	stw	r3,168(sp)
   83b40:	90c0210c 	andi	r3,r18,132
   83b44:	d8c03015 	stw	r3,192(sp)
   83b48:	1801a31e 	bne	r3,zero,841d8 <___vfprintf_internal_r+0xe00>
   83b4c:	d9003117 	ldw	r4,196(sp)
   83b50:	d8c02a17 	ldw	r3,168(sp)
   83b54:	20e7c83a 	sub	r19,r4,r3
   83b58:	04c19f0e 	bge	zero,r19,841d8 <___vfprintf_internal_r+0xe00>
   83b5c:	02400404 	movi	r9,16
   83b60:	d8c02017 	ldw	r3,128(sp)
   83b64:	d8801f17 	ldw	r2,124(sp)
   83b68:	4cc50d0e 	bge	r9,r19,84fa0 <___vfprintf_internal_r+0x1bc8>
   83b6c:	01400274 	movhi	r5,9
   83b70:	29485084 	addi	r5,r5,8514
   83b74:	dc403b15 	stw	r17,236(sp)
   83b78:	d9403515 	stw	r5,212(sp)
   83b7c:	9823883a 	mov	r17,r19
   83b80:	482d883a 	mov	r22,r9
   83b84:	9027883a 	mov	r19,r18
   83b88:	070001c4 	movi	fp,7
   83b8c:	8025883a 	mov	r18,r16
   83b90:	dc002c17 	ldw	r16,176(sp)
   83b94:	00000306 	br	83ba4 <___vfprintf_internal_r+0x7cc>
   83b98:	8c7ffc04 	addi	r17,r17,-16
   83b9c:	42000204 	addi	r8,r8,8
   83ba0:	b440130e 	bge	r22,r17,83bf0 <___vfprintf_internal_r+0x818>
   83ba4:	01000274 	movhi	r4,9
   83ba8:	18c00404 	addi	r3,r3,16
   83bac:	10800044 	addi	r2,r2,1
   83bb0:	21085084 	addi	r4,r4,8514
   83bb4:	41000015 	stw	r4,0(r8)
   83bb8:	45800115 	stw	r22,4(r8)
   83bbc:	d8c02015 	stw	r3,128(sp)
   83bc0:	d8801f15 	stw	r2,124(sp)
   83bc4:	e0bff40e 	bge	fp,r2,83b98 <rx_descriptor_end+0xfff83b38>
   83bc8:	d9801e04 	addi	r6,sp,120
   83bcc:	b80b883a 	mov	r5,r23
   83bd0:	8009883a 	mov	r4,r16
   83bd4:	00895900 	call	89590 <__sprint_r>
   83bd8:	103f011e 	bne	r2,zero,837e0 <rx_descriptor_end+0xfff83780>
   83bdc:	8c7ffc04 	addi	r17,r17,-16
   83be0:	d8c02017 	ldw	r3,128(sp)
   83be4:	d8801f17 	ldw	r2,124(sp)
   83be8:	da000404 	addi	r8,sp,16
   83bec:	b47fed16 	blt	r22,r17,83ba4 <rx_descriptor_end+0xfff83b44>
   83bf0:	9021883a 	mov	r16,r18
   83bf4:	9825883a 	mov	r18,r19
   83bf8:	8827883a 	mov	r19,r17
   83bfc:	dc403b17 	ldw	r17,236(sp)
   83c00:	d9403517 	ldw	r5,212(sp)
   83c04:	98c7883a 	add	r3,r19,r3
   83c08:	10800044 	addi	r2,r2,1
   83c0c:	41400015 	stw	r5,0(r8)
   83c10:	44c00115 	stw	r19,4(r8)
   83c14:	d8c02015 	stw	r3,128(sp)
   83c18:	d8801f15 	stw	r2,124(sp)
   83c1c:	010001c4 	movi	r4,7
   83c20:	2082a316 	blt	r4,r2,846b0 <___vfprintf_internal_r+0x12d8>
   83c24:	df002787 	ldb	fp,158(sp)
   83c28:	42000204 	addi	r8,r8,8
   83c2c:	e0000c26 	beq	fp,zero,83c60 <___vfprintf_internal_r+0x888>
   83c30:	d8801f17 	ldw	r2,124(sp)
   83c34:	d9002784 	addi	r4,sp,158
   83c38:	18c00044 	addi	r3,r3,1
   83c3c:	10800044 	addi	r2,r2,1
   83c40:	41000015 	stw	r4,0(r8)
   83c44:	01000044 	movi	r4,1
   83c48:	41000115 	stw	r4,4(r8)
   83c4c:	d8c02015 	stw	r3,128(sp)
   83c50:	d8801f15 	stw	r2,124(sp)
   83c54:	010001c4 	movi	r4,7
   83c58:	20823c16 	blt	r4,r2,8454c <___vfprintf_internal_r+0x1174>
   83c5c:	42000204 	addi	r8,r8,8
   83c60:	d8802b17 	ldw	r2,172(sp)
   83c64:	10000c26 	beq	r2,zero,83c98 <___vfprintf_internal_r+0x8c0>
   83c68:	d8801f17 	ldw	r2,124(sp)
   83c6c:	d9002704 	addi	r4,sp,156
   83c70:	18c00084 	addi	r3,r3,2
   83c74:	10800044 	addi	r2,r2,1
   83c78:	41000015 	stw	r4,0(r8)
   83c7c:	01000084 	movi	r4,2
   83c80:	41000115 	stw	r4,4(r8)
   83c84:	d8c02015 	stw	r3,128(sp)
   83c88:	d8801f15 	stw	r2,124(sp)
   83c8c:	010001c4 	movi	r4,7
   83c90:	20823616 	blt	r4,r2,8456c <___vfprintf_internal_r+0x1194>
   83c94:	42000204 	addi	r8,r8,8
   83c98:	d9003017 	ldw	r4,192(sp)
   83c9c:	00802004 	movi	r2,128
   83ca0:	20819926 	beq	r4,r2,84308 <___vfprintf_internal_r+0xf30>
   83ca4:	d9402917 	ldw	r5,164(sp)
   83ca8:	d8802e17 	ldw	r2,184(sp)
   83cac:	28adc83a 	sub	r22,r5,r2
   83cb0:	0580310e 	bge	zero,r22,83d78 <___vfprintf_internal_r+0x9a0>
   83cb4:	07000404 	movi	fp,16
   83cb8:	d8801f17 	ldw	r2,124(sp)
   83cbc:	e584140e 	bge	fp,r22,84d10 <___vfprintf_internal_r+0x1938>
   83cc0:	01400274 	movhi	r5,9
   83cc4:	29484c84 	addi	r5,r5,8498
   83cc8:	dc402915 	stw	r17,164(sp)
   83ccc:	d9402b15 	stw	r5,172(sp)
   83cd0:	b023883a 	mov	r17,r22
   83cd4:	04c001c4 	movi	r19,7
   83cd8:	a82d883a 	mov	r22,r21
   83cdc:	902b883a 	mov	r21,r18
   83ce0:	8025883a 	mov	r18,r16
   83ce4:	dc002c17 	ldw	r16,176(sp)
   83ce8:	00000306 	br	83cf8 <___vfprintf_internal_r+0x920>
   83cec:	8c7ffc04 	addi	r17,r17,-16
   83cf0:	42000204 	addi	r8,r8,8
   83cf4:	e440110e 	bge	fp,r17,83d3c <___vfprintf_internal_r+0x964>
   83cf8:	18c00404 	addi	r3,r3,16
   83cfc:	10800044 	addi	r2,r2,1
   83d00:	45000015 	stw	r20,0(r8)
   83d04:	47000115 	stw	fp,4(r8)
   83d08:	d8c02015 	stw	r3,128(sp)
   83d0c:	d8801f15 	stw	r2,124(sp)
   83d10:	98bff60e 	bge	r19,r2,83cec <rx_descriptor_end+0xfff83c8c>
   83d14:	d9801e04 	addi	r6,sp,120
   83d18:	b80b883a 	mov	r5,r23
   83d1c:	8009883a 	mov	r4,r16
   83d20:	00895900 	call	89590 <__sprint_r>
   83d24:	103eae1e 	bne	r2,zero,837e0 <rx_descriptor_end+0xfff83780>
   83d28:	8c7ffc04 	addi	r17,r17,-16
   83d2c:	d8c02017 	ldw	r3,128(sp)
   83d30:	d8801f17 	ldw	r2,124(sp)
   83d34:	da000404 	addi	r8,sp,16
   83d38:	e47fef16 	blt	fp,r17,83cf8 <rx_descriptor_end+0xfff83c98>
   83d3c:	9021883a 	mov	r16,r18
   83d40:	a825883a 	mov	r18,r21
   83d44:	b02b883a 	mov	r21,r22
   83d48:	882d883a 	mov	r22,r17
   83d4c:	dc402917 	ldw	r17,164(sp)
   83d50:	d9002b17 	ldw	r4,172(sp)
   83d54:	1d87883a 	add	r3,r3,r22
   83d58:	10800044 	addi	r2,r2,1
   83d5c:	41000015 	stw	r4,0(r8)
   83d60:	45800115 	stw	r22,4(r8)
   83d64:	d8c02015 	stw	r3,128(sp)
   83d68:	d8801f15 	stw	r2,124(sp)
   83d6c:	010001c4 	movi	r4,7
   83d70:	2081ee16 	blt	r4,r2,8452c <___vfprintf_internal_r+0x1154>
   83d74:	42000204 	addi	r8,r8,8
   83d78:	9080400c 	andi	r2,r18,256
   83d7c:	1001181e 	bne	r2,zero,841e0 <___vfprintf_internal_r+0xe08>
   83d80:	d9402e17 	ldw	r5,184(sp)
   83d84:	d8801f17 	ldw	r2,124(sp)
   83d88:	44000015 	stw	r16,0(r8)
   83d8c:	1947883a 	add	r3,r3,r5
   83d90:	10800044 	addi	r2,r2,1
   83d94:	41400115 	stw	r5,4(r8)
   83d98:	d8c02015 	stw	r3,128(sp)
   83d9c:	d8801f15 	stw	r2,124(sp)
   83da0:	010001c4 	movi	r4,7
   83da4:	2081d316 	blt	r4,r2,844f4 <___vfprintf_internal_r+0x111c>
   83da8:	42000204 	addi	r8,r8,8
   83dac:	9480010c 	andi	r18,r18,4
   83db0:	90003226 	beq	r18,zero,83e7c <___vfprintf_internal_r+0xaa4>
   83db4:	d9403117 	ldw	r5,196(sp)
   83db8:	d8802a17 	ldw	r2,168(sp)
   83dbc:	28a1c83a 	sub	r16,r5,r2
   83dc0:	04002e0e 	bge	zero,r16,83e7c <___vfprintf_internal_r+0xaa4>
   83dc4:	04400404 	movi	r17,16
   83dc8:	d8801f17 	ldw	r2,124(sp)
   83dcc:	8c04a20e 	bge	r17,r16,85058 <___vfprintf_internal_r+0x1c80>
   83dd0:	01400274 	movhi	r5,9
   83dd4:	29485084 	addi	r5,r5,8514
   83dd8:	d9403515 	stw	r5,212(sp)
   83ddc:	048001c4 	movi	r18,7
   83de0:	dcc02c17 	ldw	r19,176(sp)
   83de4:	00000306 	br	83df4 <___vfprintf_internal_r+0xa1c>
   83de8:	843ffc04 	addi	r16,r16,-16
   83dec:	42000204 	addi	r8,r8,8
   83df0:	8c00130e 	bge	r17,r16,83e40 <___vfprintf_internal_r+0xa68>
   83df4:	01000274 	movhi	r4,9
   83df8:	18c00404 	addi	r3,r3,16
   83dfc:	10800044 	addi	r2,r2,1
   83e00:	21085084 	addi	r4,r4,8514
   83e04:	41000015 	stw	r4,0(r8)
   83e08:	44400115 	stw	r17,4(r8)
   83e0c:	d8c02015 	stw	r3,128(sp)
   83e10:	d8801f15 	stw	r2,124(sp)
   83e14:	90bff40e 	bge	r18,r2,83de8 <rx_descriptor_end+0xfff83d88>
   83e18:	d9801e04 	addi	r6,sp,120
   83e1c:	b80b883a 	mov	r5,r23
   83e20:	9809883a 	mov	r4,r19
   83e24:	00895900 	call	89590 <__sprint_r>
   83e28:	103e6d1e 	bne	r2,zero,837e0 <rx_descriptor_end+0xfff83780>
   83e2c:	843ffc04 	addi	r16,r16,-16
   83e30:	d8c02017 	ldw	r3,128(sp)
   83e34:	d8801f17 	ldw	r2,124(sp)
   83e38:	da000404 	addi	r8,sp,16
   83e3c:	8c3fed16 	blt	r17,r16,83df4 <rx_descriptor_end+0xfff83d94>
   83e40:	d9403517 	ldw	r5,212(sp)
   83e44:	1c07883a 	add	r3,r3,r16
   83e48:	10800044 	addi	r2,r2,1
   83e4c:	41400015 	stw	r5,0(r8)
   83e50:	44000115 	stw	r16,4(r8)
   83e54:	d8c02015 	stw	r3,128(sp)
   83e58:	d8801f15 	stw	r2,124(sp)
   83e5c:	010001c4 	movi	r4,7
   83e60:	2080060e 	bge	r4,r2,83e7c <___vfprintf_internal_r+0xaa4>
   83e64:	d9002c17 	ldw	r4,176(sp)
   83e68:	d9801e04 	addi	r6,sp,120
   83e6c:	b80b883a 	mov	r5,r23
   83e70:	00895900 	call	89590 <__sprint_r>
   83e74:	103e5a1e 	bne	r2,zero,837e0 <rx_descriptor_end+0xfff83780>
   83e78:	d8c02017 	ldw	r3,128(sp)
   83e7c:	d8803117 	ldw	r2,196(sp)
   83e80:	d9002a17 	ldw	r4,168(sp)
   83e84:	1100010e 	bge	r2,r4,83e8c <___vfprintf_internal_r+0xab4>
   83e88:	2005883a 	mov	r2,r4
   83e8c:	d9402f17 	ldw	r5,188(sp)
   83e90:	288b883a 	add	r5,r5,r2
   83e94:	d9402f15 	stw	r5,188(sp)
   83e98:	18019e1e 	bne	r3,zero,84514 <___vfprintf_internal_r+0x113c>
   83e9c:	a8800007 	ldb	r2,0(r21)
   83ea0:	d8001f15 	stw	zero,124(sp)
   83ea4:	da000404 	addi	r8,sp,16
   83ea8:	103d851e 	bne	r2,zero,834c0 <rx_descriptor_end+0xfff83460>
   83eac:	a821883a 	mov	r16,r21
   83eb0:	003d9b06 	br	83520 <rx_descriptor_end+0xfff834c0>
   83eb4:	18c03fcc 	andi	r3,r3,255
   83eb8:	1805c11e 	bne	r3,zero,855c0 <___vfprintf_internal_r+0x21e8>
   83ebc:	94800414 	ori	r18,r18,16
   83ec0:	9080080c 	andi	r2,r18,32
   83ec4:	10020c26 	beq	r2,zero,846f8 <___vfprintf_internal_r+0x1320>
   83ec8:	d8802d17 	ldw	r2,180(sp)
   83ecc:	d9002917 	ldw	r4,164(sp)
   83ed0:	d8002785 	stb	zero,158(sp)
   83ed4:	10c00204 	addi	r3,r2,8
   83ed8:	14c00017 	ldw	r19,0(r2)
   83edc:	15800117 	ldw	r22,4(r2)
   83ee0:	20040f16 	blt	r4,zero,84f20 <___vfprintf_internal_r+0x1b48>
   83ee4:	013fdfc4 	movi	r4,-129
   83ee8:	9d84b03a 	or	r2,r19,r22
   83eec:	d8c02d15 	stw	r3,180(sp)
   83ef0:	9124703a 	and	r18,r18,r4
   83ef4:	0039883a 	mov	fp,zero
   83ef8:	103e891e 	bne	r2,zero,83920 <rx_descriptor_end+0xfff838c0>
   83efc:	d9002917 	ldw	r4,164(sp)
   83f00:	2002c11e 	bne	r4,zero,84a08 <___vfprintf_internal_r+0x1630>
   83f04:	d8002915 	stw	zero,164(sp)
   83f08:	d8002e15 	stw	zero,184(sp)
   83f0c:	dc001e04 	addi	r16,sp,120
   83f10:	003ef806 	br	83af4 <rx_descriptor_end+0xfff83a94>
   83f14:	18c03fcc 	andi	r3,r3,255
   83f18:	18059d1e 	bne	r3,zero,85590 <___vfprintf_internal_r+0x21b8>
   83f1c:	01400274 	movhi	r5,9
   83f20:	29484004 	addi	r5,r5,8448
   83f24:	d9403915 	stw	r5,228(sp)
   83f28:	9080080c 	andi	r2,r18,32
   83f2c:	10005226 	beq	r2,zero,84078 <___vfprintf_internal_r+0xca0>
   83f30:	d8802d17 	ldw	r2,180(sp)
   83f34:	14c00017 	ldw	r19,0(r2)
   83f38:	15800117 	ldw	r22,4(r2)
   83f3c:	10800204 	addi	r2,r2,8
   83f40:	d8802d15 	stw	r2,180(sp)
   83f44:	9080004c 	andi	r2,r18,1
   83f48:	10019026 	beq	r2,zero,8458c <___vfprintf_internal_r+0x11b4>
   83f4c:	9d84b03a 	or	r2,r19,r22
   83f50:	10036926 	beq	r2,zero,84cf8 <___vfprintf_internal_r+0x1920>
   83f54:	d8c02917 	ldw	r3,164(sp)
   83f58:	00800c04 	movi	r2,48
   83f5c:	d8802705 	stb	r2,156(sp)
   83f60:	dc402745 	stb	r17,157(sp)
   83f64:	d8002785 	stb	zero,158(sp)
   83f68:	90800094 	ori	r2,r18,2
   83f6c:	18045d16 	blt	r3,zero,850e4 <___vfprintf_internal_r+0x1d0c>
   83f70:	00bfdfc4 	movi	r2,-129
   83f74:	90a4703a 	and	r18,r18,r2
   83f78:	94800094 	ori	r18,r18,2
   83f7c:	0039883a 	mov	fp,zero
   83f80:	d9003917 	ldw	r4,228(sp)
   83f84:	dc001e04 	addi	r16,sp,120
   83f88:	988003cc 	andi	r2,r19,15
   83f8c:	b006973a 	slli	r3,r22,28
   83f90:	2085883a 	add	r2,r4,r2
   83f94:	9826d13a 	srli	r19,r19,4
   83f98:	10800003 	ldbu	r2,0(r2)
   83f9c:	b02cd13a 	srli	r22,r22,4
   83fa0:	843fffc4 	addi	r16,r16,-1
   83fa4:	1ce6b03a 	or	r19,r3,r19
   83fa8:	80800005 	stb	r2,0(r16)
   83fac:	9d84b03a 	or	r2,r19,r22
   83fb0:	103ff51e 	bne	r2,zero,83f88 <rx_descriptor_end+0xfff83f28>
   83fb4:	d8c02817 	ldw	r3,160(sp)
   83fb8:	1c07c83a 	sub	r3,r3,r16
   83fbc:	d8c02e15 	stw	r3,184(sp)
   83fc0:	003ecc06 	br	83af4 <rx_descriptor_end+0xfff83a94>
   83fc4:	18c03fcc 	andi	r3,r3,255
   83fc8:	183e9f26 	beq	r3,zero,83a48 <rx_descriptor_end+0xfff839e8>
   83fcc:	d9c02785 	stb	r7,158(sp)
   83fd0:	003e9d06 	br	83a48 <rx_descriptor_end+0xfff839e8>
   83fd4:	00c00044 	movi	r3,1
   83fd8:	01c00ac4 	movi	r7,43
   83fdc:	ac400007 	ldb	r17,0(r21)
   83fe0:	003d5e06 	br	8355c <rx_descriptor_end+0xfff834fc>
   83fe4:	94800814 	ori	r18,r18,32
   83fe8:	ac400007 	ldb	r17,0(r21)
   83fec:	003d5b06 	br	8355c <rx_descriptor_end+0xfff834fc>
   83ff0:	d8c02d17 	ldw	r3,180(sp)
   83ff4:	d8002785 	stb	zero,158(sp)
   83ff8:	1c000017 	ldw	r16,0(r3)
   83ffc:	1cc00104 	addi	r19,r3,4
   84000:	80041926 	beq	r16,zero,85068 <___vfprintf_internal_r+0x1c90>
   84004:	d9002917 	ldw	r4,164(sp)
   84008:	2003d016 	blt	r4,zero,84f4c <___vfprintf_internal_r+0x1b74>
   8400c:	200d883a 	mov	r6,r4
   84010:	000b883a 	mov	r5,zero
   84014:	8009883a 	mov	r4,r16
   84018:	da003d15 	stw	r8,244(sp)
   8401c:	00879f00 	call	879f0 <memchr>
   84020:	da003d17 	ldw	r8,244(sp)
   84024:	10045426 	beq	r2,zero,85178 <___vfprintf_internal_r+0x1da0>
   84028:	1405c83a 	sub	r2,r2,r16
   8402c:	d8802e15 	stw	r2,184(sp)
   84030:	1003cc16 	blt	r2,zero,84f64 <___vfprintf_internal_r+0x1b8c>
   84034:	df002783 	ldbu	fp,158(sp)
   84038:	d8802a15 	stw	r2,168(sp)
   8403c:	dcc02d15 	stw	r19,180(sp)
   84040:	d8002915 	stw	zero,164(sp)
   84044:	d8003215 	stw	zero,200(sp)
   84048:	003eb006 	br	83b0c <rx_descriptor_end+0xfff83aac>
   8404c:	18c03fcc 	andi	r3,r3,255
   84050:	183f9b26 	beq	r3,zero,83ec0 <rx_descriptor_end+0xfff83e60>
   84054:	d9c02785 	stb	r7,158(sp)
   84058:	003f9906 	br	83ec0 <rx_descriptor_end+0xfff83e60>
   8405c:	18c03fcc 	andi	r3,r3,255
   84060:	1805551e 	bne	r3,zero,855b8 <___vfprintf_internal_r+0x21e0>
   84064:	01400274 	movhi	r5,9
   84068:	29484504 	addi	r5,r5,8468
   8406c:	d9403915 	stw	r5,228(sp)
   84070:	9080080c 	andi	r2,r18,32
   84074:	103fae1e 	bne	r2,zero,83f30 <rx_descriptor_end+0xfff83ed0>
   84078:	9080040c 	andi	r2,r18,16
   8407c:	1002de26 	beq	r2,zero,84bf8 <___vfprintf_internal_r+0x1820>
   84080:	d8c02d17 	ldw	r3,180(sp)
   84084:	002d883a 	mov	r22,zero
   84088:	1cc00017 	ldw	r19,0(r3)
   8408c:	18c00104 	addi	r3,r3,4
   84090:	d8c02d15 	stw	r3,180(sp)
   84094:	003fab06 	br	83f44 <rx_descriptor_end+0xfff83ee4>
   84098:	38803fcc 	andi	r2,r7,255
   8409c:	1080201c 	xori	r2,r2,128
   840a0:	10bfe004 	addi	r2,r2,-128
   840a4:	1002d21e 	bne	r2,zero,84bf0 <___vfprintf_internal_r+0x1818>
   840a8:	00c00044 	movi	r3,1
   840ac:	01c00804 	movi	r7,32
   840b0:	ac400007 	ldb	r17,0(r21)
   840b4:	003d2906 	br	8355c <rx_descriptor_end+0xfff834fc>
   840b8:	94800054 	ori	r18,r18,1
   840bc:	ac400007 	ldb	r17,0(r21)
   840c0:	003d2606 	br	8355c <rx_descriptor_end+0xfff834fc>
   840c4:	18c03fcc 	andi	r3,r3,255
   840c8:	183e0526 	beq	r3,zero,838e0 <rx_descriptor_end+0xfff83880>
   840cc:	d9c02785 	stb	r7,158(sp)
   840d0:	003e0306 	br	838e0 <rx_descriptor_end+0xfff83880>
   840d4:	94801014 	ori	r18,r18,64
   840d8:	ac400007 	ldb	r17,0(r21)
   840dc:	003d1f06 	br	8355c <rx_descriptor_end+0xfff834fc>
   840e0:	ac400007 	ldb	r17,0(r21)
   840e4:	8a438726 	beq	r17,r9,84f04 <___vfprintf_internal_r+0x1b2c>
   840e8:	94800414 	ori	r18,r18,16
   840ec:	003d1b06 	br	8355c <rx_descriptor_end+0xfff834fc>
   840f0:	18c03fcc 	andi	r3,r3,255
   840f4:	1805341e 	bne	r3,zero,855c8 <___vfprintf_internal_r+0x21f0>
   840f8:	9080080c 	andi	r2,r18,32
   840fc:	1002cd26 	beq	r2,zero,84c34 <___vfprintf_internal_r+0x185c>
   84100:	d9402d17 	ldw	r5,180(sp)
   84104:	d9002f17 	ldw	r4,188(sp)
   84108:	28800017 	ldw	r2,0(r5)
   8410c:	2007d7fa 	srai	r3,r4,31
   84110:	29400104 	addi	r5,r5,4
   84114:	d9402d15 	stw	r5,180(sp)
   84118:	11000015 	stw	r4,0(r2)
   8411c:	10c00115 	stw	r3,4(r2)
   84120:	003ce506 	br	834b8 <rx_descriptor_end+0xfff83458>
   84124:	d8c02d17 	ldw	r3,180(sp)
   84128:	d9002d17 	ldw	r4,180(sp)
   8412c:	d8002785 	stb	zero,158(sp)
   84130:	18800017 	ldw	r2,0(r3)
   84134:	21000104 	addi	r4,r4,4
   84138:	00c00044 	movi	r3,1
   8413c:	d8c02a15 	stw	r3,168(sp)
   84140:	d8801405 	stb	r2,80(sp)
   84144:	d9002d15 	stw	r4,180(sp)
   84148:	d8c02e15 	stw	r3,184(sp)
   8414c:	d8002915 	stw	zero,164(sp)
   84150:	d8003215 	stw	zero,200(sp)
   84154:	dc001404 	addi	r16,sp,80
   84158:	0039883a 	mov	fp,zero
   8415c:	003e7206 	br	83b28 <rx_descriptor_end+0xfff83ac8>
   84160:	01000274 	movhi	r4,9
   84164:	21084504 	addi	r4,r4,8468
   84168:	0039883a 	mov	fp,zero
   8416c:	d9003915 	stw	r4,228(sp)
   84170:	04401e04 	movi	r17,120
   84174:	003f8206 	br	83f80 <rx_descriptor_end+0xfff83f20>
   84178:	18c03fcc 	andi	r3,r3,255
   8417c:	1805061e 	bne	r3,zero,85598 <___vfprintf_internal_r+0x21c0>
   84180:	883d9126 	beq	r17,zero,837c8 <rx_descriptor_end+0xfff83768>
   84184:	00c00044 	movi	r3,1
   84188:	d8c02a15 	stw	r3,168(sp)
   8418c:	dc401405 	stb	r17,80(sp)
   84190:	d8002785 	stb	zero,158(sp)
   84194:	003fec06 	br	84148 <rx_descriptor_end+0xfff840e8>
   84198:	01400274 	movhi	r5,9
   8419c:	29484504 	addi	r5,r5,8468
   841a0:	d9403915 	stw	r5,228(sp)
   841a4:	d8c02d15 	stw	r3,180(sp)
   841a8:	1025883a 	mov	r18,r2
   841ac:	04401e04 	movi	r17,120
   841b0:	9d84b03a 	or	r2,r19,r22
   841b4:	1000fc1e 	bne	r2,zero,845a8 <___vfprintf_internal_r+0x11d0>
   841b8:	0039883a 	mov	fp,zero
   841bc:	00800084 	movi	r2,2
   841c0:	10803fcc 	andi	r2,r2,255
   841c4:	00c00044 	movi	r3,1
   841c8:	10c20f26 	beq	r2,r3,84a08 <___vfprintf_internal_r+0x1630>
   841cc:	00c00084 	movi	r3,2
   841d0:	10fd6326 	beq	r2,r3,83760 <rx_descriptor_end+0xfff83700>
   841d4:	003e2d06 	br	83a8c <rx_descriptor_end+0xfff83a2c>
   841d8:	d8c02017 	ldw	r3,128(sp)
   841dc:	003e9306 	br	83c2c <rx_descriptor_end+0xfff83bcc>
   841e0:	00801944 	movi	r2,101
   841e4:	14407e0e 	bge	r2,r17,843e0 <___vfprintf_internal_r+0x1008>
   841e8:	d9003617 	ldw	r4,216(sp)
   841ec:	d9403817 	ldw	r5,224(sp)
   841f0:	000d883a 	mov	r6,zero
   841f4:	000f883a 	mov	r7,zero
   841f8:	d8c03c15 	stw	r3,240(sp)
   841fc:	da003d15 	stw	r8,244(sp)
   84200:	008cf900 	call	8cf90 <__eqdf2>
   84204:	d8c03c17 	ldw	r3,240(sp)
   84208:	da003d17 	ldw	r8,244(sp)
   8420c:	1000f71e 	bne	r2,zero,845ec <___vfprintf_internal_r+0x1214>
   84210:	d8801f17 	ldw	r2,124(sp)
   84214:	01000274 	movhi	r4,9
   84218:	21084c04 	addi	r4,r4,8496
   8421c:	18c00044 	addi	r3,r3,1
   84220:	10800044 	addi	r2,r2,1
   84224:	41000015 	stw	r4,0(r8)
   84228:	01000044 	movi	r4,1
   8422c:	41000115 	stw	r4,4(r8)
   84230:	d8c02015 	stw	r3,128(sp)
   84234:	d8801f15 	stw	r2,124(sp)
   84238:	010001c4 	movi	r4,7
   8423c:	2082b816 	blt	r4,r2,84d20 <___vfprintf_internal_r+0x1948>
   84240:	42000204 	addi	r8,r8,8
   84244:	d8802617 	ldw	r2,152(sp)
   84248:	d9403317 	ldw	r5,204(sp)
   8424c:	11400216 	blt	r2,r5,84258 <___vfprintf_internal_r+0xe80>
   84250:	9080004c 	andi	r2,r18,1
   84254:	103ed526 	beq	r2,zero,83dac <rx_descriptor_end+0xfff83d4c>
   84258:	d8803717 	ldw	r2,220(sp)
   8425c:	d9003417 	ldw	r4,208(sp)
   84260:	d9403717 	ldw	r5,220(sp)
   84264:	1887883a 	add	r3,r3,r2
   84268:	d8801f17 	ldw	r2,124(sp)
   8426c:	41000015 	stw	r4,0(r8)
   84270:	41400115 	stw	r5,4(r8)
   84274:	10800044 	addi	r2,r2,1
   84278:	d8c02015 	stw	r3,128(sp)
   8427c:	d8801f15 	stw	r2,124(sp)
   84280:	010001c4 	movi	r4,7
   84284:	20832916 	blt	r4,r2,84f2c <___vfprintf_internal_r+0x1b54>
   84288:	42000204 	addi	r8,r8,8
   8428c:	d8803317 	ldw	r2,204(sp)
   84290:	143fffc4 	addi	r16,r2,-1
   84294:	043ec50e 	bge	zero,r16,83dac <rx_descriptor_end+0xfff83d4c>
   84298:	04400404 	movi	r17,16
   8429c:	d8801f17 	ldw	r2,124(sp)
   842a0:	8c00880e 	bge	r17,r16,844c4 <___vfprintf_internal_r+0x10ec>
   842a4:	01400274 	movhi	r5,9
   842a8:	29484c84 	addi	r5,r5,8498
   842ac:	d9402b15 	stw	r5,172(sp)
   842b0:	058001c4 	movi	r22,7
   842b4:	dcc02c17 	ldw	r19,176(sp)
   842b8:	00000306 	br	842c8 <___vfprintf_internal_r+0xef0>
   842bc:	42000204 	addi	r8,r8,8
   842c0:	843ffc04 	addi	r16,r16,-16
   842c4:	8c00820e 	bge	r17,r16,844d0 <___vfprintf_internal_r+0x10f8>
   842c8:	18c00404 	addi	r3,r3,16
   842cc:	10800044 	addi	r2,r2,1
   842d0:	45000015 	stw	r20,0(r8)
   842d4:	44400115 	stw	r17,4(r8)
   842d8:	d8c02015 	stw	r3,128(sp)
   842dc:	d8801f15 	stw	r2,124(sp)
   842e0:	b0bff60e 	bge	r22,r2,842bc <rx_descriptor_end+0xfff8425c>
   842e4:	d9801e04 	addi	r6,sp,120
   842e8:	b80b883a 	mov	r5,r23
   842ec:	9809883a 	mov	r4,r19
   842f0:	00895900 	call	89590 <__sprint_r>
   842f4:	103d3a1e 	bne	r2,zero,837e0 <rx_descriptor_end+0xfff83780>
   842f8:	d8c02017 	ldw	r3,128(sp)
   842fc:	d8801f17 	ldw	r2,124(sp)
   84300:	da000404 	addi	r8,sp,16
   84304:	003fee06 	br	842c0 <rx_descriptor_end+0xfff84260>
   84308:	d9403117 	ldw	r5,196(sp)
   8430c:	d8802a17 	ldw	r2,168(sp)
   84310:	28adc83a 	sub	r22,r5,r2
   84314:	05be630e 	bge	zero,r22,83ca4 <rx_descriptor_end+0xfff83c44>
   84318:	07000404 	movi	fp,16
   8431c:	d8801f17 	ldw	r2,124(sp)
   84320:	e5838f0e 	bge	fp,r22,85160 <___vfprintf_internal_r+0x1d88>
   84324:	01400274 	movhi	r5,9
   84328:	29484c84 	addi	r5,r5,8498
   8432c:	dc403015 	stw	r17,192(sp)
   84330:	d9402b15 	stw	r5,172(sp)
   84334:	b023883a 	mov	r17,r22
   84338:	04c001c4 	movi	r19,7
   8433c:	a82d883a 	mov	r22,r21
   84340:	902b883a 	mov	r21,r18
   84344:	8025883a 	mov	r18,r16
   84348:	dc002c17 	ldw	r16,176(sp)
   8434c:	00000306 	br	8435c <___vfprintf_internal_r+0xf84>
   84350:	8c7ffc04 	addi	r17,r17,-16
   84354:	42000204 	addi	r8,r8,8
   84358:	e440110e 	bge	fp,r17,843a0 <___vfprintf_internal_r+0xfc8>
   8435c:	18c00404 	addi	r3,r3,16
   84360:	10800044 	addi	r2,r2,1
   84364:	45000015 	stw	r20,0(r8)
   84368:	47000115 	stw	fp,4(r8)
   8436c:	d8c02015 	stw	r3,128(sp)
   84370:	d8801f15 	stw	r2,124(sp)
   84374:	98bff60e 	bge	r19,r2,84350 <rx_descriptor_end+0xfff842f0>
   84378:	d9801e04 	addi	r6,sp,120
   8437c:	b80b883a 	mov	r5,r23
   84380:	8009883a 	mov	r4,r16
   84384:	00895900 	call	89590 <__sprint_r>
   84388:	103d151e 	bne	r2,zero,837e0 <rx_descriptor_end+0xfff83780>
   8438c:	8c7ffc04 	addi	r17,r17,-16
   84390:	d8c02017 	ldw	r3,128(sp)
   84394:	d8801f17 	ldw	r2,124(sp)
   84398:	da000404 	addi	r8,sp,16
   8439c:	e47fef16 	blt	fp,r17,8435c <rx_descriptor_end+0xfff842fc>
   843a0:	9021883a 	mov	r16,r18
   843a4:	a825883a 	mov	r18,r21
   843a8:	b02b883a 	mov	r21,r22
   843ac:	882d883a 	mov	r22,r17
   843b0:	dc403017 	ldw	r17,192(sp)
   843b4:	d9002b17 	ldw	r4,172(sp)
   843b8:	1d87883a 	add	r3,r3,r22
   843bc:	10800044 	addi	r2,r2,1
   843c0:	41000015 	stw	r4,0(r8)
   843c4:	45800115 	stw	r22,4(r8)
   843c8:	d8c02015 	stw	r3,128(sp)
   843cc:	d8801f15 	stw	r2,124(sp)
   843d0:	010001c4 	movi	r4,7
   843d4:	20818e16 	blt	r4,r2,84a10 <___vfprintf_internal_r+0x1638>
   843d8:	42000204 	addi	r8,r8,8
   843dc:	003e3106 	br	83ca4 <rx_descriptor_end+0xfff83c44>
   843e0:	d9403317 	ldw	r5,204(sp)
   843e4:	00800044 	movi	r2,1
   843e8:	18c00044 	addi	r3,r3,1
   843ec:	1141530e 	bge	r2,r5,8493c <___vfprintf_internal_r+0x1564>
   843f0:	dc401f17 	ldw	r17,124(sp)
   843f4:	00800044 	movi	r2,1
   843f8:	40800115 	stw	r2,4(r8)
   843fc:	8c400044 	addi	r17,r17,1
   84400:	44000015 	stw	r16,0(r8)
   84404:	d8c02015 	stw	r3,128(sp)
   84408:	dc401f15 	stw	r17,124(sp)
   8440c:	008001c4 	movi	r2,7
   84410:	14416b16 	blt	r2,r17,849c0 <___vfprintf_internal_r+0x15e8>
   84414:	42000204 	addi	r8,r8,8
   84418:	d8803717 	ldw	r2,220(sp)
   8441c:	d9003417 	ldw	r4,208(sp)
   84420:	8c400044 	addi	r17,r17,1
   84424:	10c7883a 	add	r3,r2,r3
   84428:	40800115 	stw	r2,4(r8)
   8442c:	41000015 	stw	r4,0(r8)
   84430:	d8c02015 	stw	r3,128(sp)
   84434:	dc401f15 	stw	r17,124(sp)
   84438:	008001c4 	movi	r2,7
   8443c:	14416916 	blt	r2,r17,849e4 <___vfprintf_internal_r+0x160c>
   84440:	45800204 	addi	r22,r8,8
   84444:	d9003617 	ldw	r4,216(sp)
   84448:	d9403817 	ldw	r5,224(sp)
   8444c:	000d883a 	mov	r6,zero
   84450:	000f883a 	mov	r7,zero
   84454:	d8c03c15 	stw	r3,240(sp)
   84458:	008cf900 	call	8cf90 <__eqdf2>
   8445c:	d8c03c17 	ldw	r3,240(sp)
   84460:	1000bc26 	beq	r2,zero,84754 <___vfprintf_internal_r+0x137c>
   84464:	d9403317 	ldw	r5,204(sp)
   84468:	84000044 	addi	r16,r16,1
   8446c:	8c400044 	addi	r17,r17,1
   84470:	28bfffc4 	addi	r2,r5,-1
   84474:	1887883a 	add	r3,r3,r2
   84478:	b0800115 	stw	r2,4(r22)
   8447c:	b4000015 	stw	r16,0(r22)
   84480:	d8c02015 	stw	r3,128(sp)
   84484:	dc401f15 	stw	r17,124(sp)
   84488:	008001c4 	movi	r2,7
   8448c:	14414316 	blt	r2,r17,8499c <___vfprintf_internal_r+0x15c4>
   84490:	b5800204 	addi	r22,r22,8
   84494:	d9003a17 	ldw	r4,232(sp)
   84498:	df0022c4 	addi	fp,sp,139
   8449c:	8c400044 	addi	r17,r17,1
   844a0:	20c7883a 	add	r3,r4,r3
   844a4:	b7000015 	stw	fp,0(r22)
   844a8:	b1000115 	stw	r4,4(r22)
   844ac:	d8c02015 	stw	r3,128(sp)
   844b0:	dc401f15 	stw	r17,124(sp)
   844b4:	008001c4 	movi	r2,7
   844b8:	14400e16 	blt	r2,r17,844f4 <___vfprintf_internal_r+0x111c>
   844bc:	b2000204 	addi	r8,r22,8
   844c0:	003e3a06 	br	83dac <rx_descriptor_end+0xfff83d4c>
   844c4:	01000274 	movhi	r4,9
   844c8:	21084c84 	addi	r4,r4,8498
   844cc:	d9002b15 	stw	r4,172(sp)
   844d0:	d9002b17 	ldw	r4,172(sp)
   844d4:	1c07883a 	add	r3,r3,r16
   844d8:	44000115 	stw	r16,4(r8)
   844dc:	41000015 	stw	r4,0(r8)
   844e0:	10800044 	addi	r2,r2,1
   844e4:	d8c02015 	stw	r3,128(sp)
   844e8:	d8801f15 	stw	r2,124(sp)
   844ec:	010001c4 	movi	r4,7
   844f0:	20be2d0e 	bge	r4,r2,83da8 <rx_descriptor_end+0xfff83d48>
   844f4:	d9002c17 	ldw	r4,176(sp)
   844f8:	d9801e04 	addi	r6,sp,120
   844fc:	b80b883a 	mov	r5,r23
   84500:	00895900 	call	89590 <__sprint_r>
   84504:	103cb61e 	bne	r2,zero,837e0 <rx_descriptor_end+0xfff83780>
   84508:	d8c02017 	ldw	r3,128(sp)
   8450c:	da000404 	addi	r8,sp,16
   84510:	003e2606 	br	83dac <rx_descriptor_end+0xfff83d4c>
   84514:	d9002c17 	ldw	r4,176(sp)
   84518:	d9801e04 	addi	r6,sp,120
   8451c:	b80b883a 	mov	r5,r23
   84520:	00895900 	call	89590 <__sprint_r>
   84524:	103e5d26 	beq	r2,zero,83e9c <rx_descriptor_end+0xfff83e3c>
   84528:	003cad06 	br	837e0 <rx_descriptor_end+0xfff83780>
   8452c:	d9002c17 	ldw	r4,176(sp)
   84530:	d9801e04 	addi	r6,sp,120
   84534:	b80b883a 	mov	r5,r23
   84538:	00895900 	call	89590 <__sprint_r>
   8453c:	103ca81e 	bne	r2,zero,837e0 <rx_descriptor_end+0xfff83780>
   84540:	d8c02017 	ldw	r3,128(sp)
   84544:	da000404 	addi	r8,sp,16
   84548:	003e0b06 	br	83d78 <rx_descriptor_end+0xfff83d18>
   8454c:	d9002c17 	ldw	r4,176(sp)
   84550:	d9801e04 	addi	r6,sp,120
   84554:	b80b883a 	mov	r5,r23
   84558:	00895900 	call	89590 <__sprint_r>
   8455c:	103ca01e 	bne	r2,zero,837e0 <rx_descriptor_end+0xfff83780>
   84560:	d8c02017 	ldw	r3,128(sp)
   84564:	da000404 	addi	r8,sp,16
   84568:	003dbd06 	br	83c60 <rx_descriptor_end+0xfff83c00>
   8456c:	d9002c17 	ldw	r4,176(sp)
   84570:	d9801e04 	addi	r6,sp,120
   84574:	b80b883a 	mov	r5,r23
   84578:	00895900 	call	89590 <__sprint_r>
   8457c:	103c981e 	bne	r2,zero,837e0 <rx_descriptor_end+0xfff83780>
   84580:	d8c02017 	ldw	r3,128(sp)
   84584:	da000404 	addi	r8,sp,16
   84588:	003dc306 	br	83c98 <rx_descriptor_end+0xfff83c38>
   8458c:	d8802917 	ldw	r2,164(sp)
   84590:	d8002785 	stb	zero,158(sp)
   84594:	103f0616 	blt	r2,zero,841b0 <rx_descriptor_end+0xfff84150>
   84598:	00ffdfc4 	movi	r3,-129
   8459c:	9d84b03a 	or	r2,r19,r22
   845a0:	90e4703a 	and	r18,r18,r3
   845a4:	103c6b26 	beq	r2,zero,83754 <rx_descriptor_end+0xfff836f4>
   845a8:	0039883a 	mov	fp,zero
   845ac:	003e7406 	br	83f80 <rx_descriptor_end+0xfff83f20>
   845b0:	9080040c 	andi	r2,r18,16
   845b4:	1001b326 	beq	r2,zero,84c84 <___vfprintf_internal_r+0x18ac>
   845b8:	d9002d17 	ldw	r4,180(sp)
   845bc:	d9402917 	ldw	r5,164(sp)
   845c0:	d8002785 	stb	zero,158(sp)
   845c4:	20800104 	addi	r2,r4,4
   845c8:	24c00017 	ldw	r19,0(r4)
   845cc:	002d883a 	mov	r22,zero
   845d0:	2801b516 	blt	r5,zero,84ca8 <___vfprintf_internal_r+0x18d0>
   845d4:	00ffdfc4 	movi	r3,-129
   845d8:	d8802d15 	stw	r2,180(sp)
   845dc:	90e4703a 	and	r18,r18,r3
   845e0:	983d2726 	beq	r19,zero,83a80 <rx_descriptor_end+0xfff83a20>
   845e4:	0039883a 	mov	fp,zero
   845e8:	003d2a06 	br	83a94 <rx_descriptor_end+0xfff83a34>
   845ec:	dc402617 	ldw	r17,152(sp)
   845f0:	0441d30e 	bge	zero,r17,84d40 <___vfprintf_internal_r+0x1968>
   845f4:	dc403217 	ldw	r17,200(sp)
   845f8:	d8803317 	ldw	r2,204(sp)
   845fc:	1440010e 	bge	r2,r17,84604 <___vfprintf_internal_r+0x122c>
   84600:	1023883a 	mov	r17,r2
   84604:	04400a0e 	bge	zero,r17,84630 <___vfprintf_internal_r+0x1258>
   84608:	d8801f17 	ldw	r2,124(sp)
   8460c:	1c47883a 	add	r3,r3,r17
   84610:	44000015 	stw	r16,0(r8)
   84614:	10800044 	addi	r2,r2,1
   84618:	44400115 	stw	r17,4(r8)
   8461c:	d8c02015 	stw	r3,128(sp)
   84620:	d8801f15 	stw	r2,124(sp)
   84624:	010001c4 	movi	r4,7
   84628:	20826516 	blt	r4,r2,84fc0 <___vfprintf_internal_r+0x1be8>
   8462c:	42000204 	addi	r8,r8,8
   84630:	88026116 	blt	r17,zero,84fb8 <___vfprintf_internal_r+0x1be0>
   84634:	d9003217 	ldw	r4,200(sp)
   84638:	2463c83a 	sub	r17,r4,r17
   8463c:	04407b0e 	bge	zero,r17,8482c <___vfprintf_internal_r+0x1454>
   84640:	05800404 	movi	r22,16
   84644:	d8801f17 	ldw	r2,124(sp)
   84648:	b4419d0e 	bge	r22,r17,84cc0 <___vfprintf_internal_r+0x18e8>
   8464c:	01000274 	movhi	r4,9
   84650:	21084c84 	addi	r4,r4,8498
   84654:	d9002b15 	stw	r4,172(sp)
   84658:	070001c4 	movi	fp,7
   8465c:	dcc02c17 	ldw	r19,176(sp)
   84660:	00000306 	br	84670 <___vfprintf_internal_r+0x1298>
   84664:	42000204 	addi	r8,r8,8
   84668:	8c7ffc04 	addi	r17,r17,-16
   8466c:	b441970e 	bge	r22,r17,84ccc <___vfprintf_internal_r+0x18f4>
   84670:	18c00404 	addi	r3,r3,16
   84674:	10800044 	addi	r2,r2,1
   84678:	45000015 	stw	r20,0(r8)
   8467c:	45800115 	stw	r22,4(r8)
   84680:	d8c02015 	stw	r3,128(sp)
   84684:	d8801f15 	stw	r2,124(sp)
   84688:	e0bff60e 	bge	fp,r2,84664 <rx_descriptor_end+0xfff84604>
   8468c:	d9801e04 	addi	r6,sp,120
   84690:	b80b883a 	mov	r5,r23
   84694:	9809883a 	mov	r4,r19
   84698:	00895900 	call	89590 <__sprint_r>
   8469c:	103c501e 	bne	r2,zero,837e0 <rx_descriptor_end+0xfff83780>
   846a0:	d8c02017 	ldw	r3,128(sp)
   846a4:	d8801f17 	ldw	r2,124(sp)
   846a8:	da000404 	addi	r8,sp,16
   846ac:	003fee06 	br	84668 <rx_descriptor_end+0xfff84608>
   846b0:	d9002c17 	ldw	r4,176(sp)
   846b4:	d9801e04 	addi	r6,sp,120
   846b8:	b80b883a 	mov	r5,r23
   846bc:	00895900 	call	89590 <__sprint_r>
   846c0:	103c471e 	bne	r2,zero,837e0 <rx_descriptor_end+0xfff83780>
   846c4:	d8c02017 	ldw	r3,128(sp)
   846c8:	df002787 	ldb	fp,158(sp)
   846cc:	da000404 	addi	r8,sp,16
   846d0:	003d5606 	br	83c2c <rx_descriptor_end+0xfff83bcc>
   846d4:	9080040c 	andi	r2,r18,16
   846d8:	10016126 	beq	r2,zero,84c60 <___vfprintf_internal_r+0x1888>
   846dc:	d8802d17 	ldw	r2,180(sp)
   846e0:	14c00017 	ldw	r19,0(r2)
   846e4:	10800104 	addi	r2,r2,4
   846e8:	d8802d15 	stw	r2,180(sp)
   846ec:	982dd7fa 	srai	r22,r19,31
   846f0:	b005883a 	mov	r2,r22
   846f4:	003c8206 	br	83900 <rx_descriptor_end+0xfff838a0>
   846f8:	9080040c 	andi	r2,r18,16
   846fc:	10003526 	beq	r2,zero,847d4 <___vfprintf_internal_r+0x13fc>
   84700:	d9402d17 	ldw	r5,180(sp)
   84704:	d8c02917 	ldw	r3,164(sp)
   84708:	d8002785 	stb	zero,158(sp)
   8470c:	28800104 	addi	r2,r5,4
   84710:	2cc00017 	ldw	r19,0(r5)
   84714:	002d883a 	mov	r22,zero
   84718:	18003716 	blt	r3,zero,847f8 <___vfprintf_internal_r+0x1420>
   8471c:	00ffdfc4 	movi	r3,-129
   84720:	d8802d15 	stw	r2,180(sp)
   84724:	90e4703a 	and	r18,r18,r3
   84728:	0039883a 	mov	fp,zero
   8472c:	983df326 	beq	r19,zero,83efc <rx_descriptor_end+0xfff83e9c>
   84730:	00800244 	movi	r2,9
   84734:	14fc7b36 	bltu	r2,r19,83924 <rx_descriptor_end+0xfff838c4>
   84738:	d8c02817 	ldw	r3,160(sp)
   8473c:	dc001dc4 	addi	r16,sp,119
   84740:	9cc00c04 	addi	r19,r19,48
   84744:	1c07c83a 	sub	r3,r3,r16
   84748:	dcc01dc5 	stb	r19,119(sp)
   8474c:	d8c02e15 	stw	r3,184(sp)
   84750:	003ce806 	br	83af4 <rx_descriptor_end+0xfff83a94>
   84754:	d8803317 	ldw	r2,204(sp)
   84758:	143fffc4 	addi	r16,r2,-1
   8475c:	043f4d0e 	bge	zero,r16,84494 <rx_descriptor_end+0xfff84434>
   84760:	07000404 	movi	fp,16
   84764:	e400810e 	bge	fp,r16,8496c <___vfprintf_internal_r+0x1594>
   84768:	01400274 	movhi	r5,9
   8476c:	29484c84 	addi	r5,r5,8498
   84770:	d9402b15 	stw	r5,172(sp)
   84774:	01c001c4 	movi	r7,7
   84778:	dcc02c17 	ldw	r19,176(sp)
   8477c:	00000306 	br	8478c <___vfprintf_internal_r+0x13b4>
   84780:	b5800204 	addi	r22,r22,8
   84784:	843ffc04 	addi	r16,r16,-16
   84788:	e4007b0e 	bge	fp,r16,84978 <___vfprintf_internal_r+0x15a0>
   8478c:	18c00404 	addi	r3,r3,16
   84790:	8c400044 	addi	r17,r17,1
   84794:	b5000015 	stw	r20,0(r22)
   84798:	b7000115 	stw	fp,4(r22)
   8479c:	d8c02015 	stw	r3,128(sp)
   847a0:	dc401f15 	stw	r17,124(sp)
   847a4:	3c7ff60e 	bge	r7,r17,84780 <rx_descriptor_end+0xfff84720>
   847a8:	d9801e04 	addi	r6,sp,120
   847ac:	b80b883a 	mov	r5,r23
   847b0:	9809883a 	mov	r4,r19
   847b4:	d9c03c15 	stw	r7,240(sp)
   847b8:	00895900 	call	89590 <__sprint_r>
   847bc:	d9c03c17 	ldw	r7,240(sp)
   847c0:	103c071e 	bne	r2,zero,837e0 <rx_descriptor_end+0xfff83780>
   847c4:	d8c02017 	ldw	r3,128(sp)
   847c8:	dc401f17 	ldw	r17,124(sp)
   847cc:	dd800404 	addi	r22,sp,16
   847d0:	003fec06 	br	84784 <rx_descriptor_end+0xfff84724>
   847d4:	9080100c 	andi	r2,r18,64
   847d8:	d8002785 	stb	zero,158(sp)
   847dc:	10010e26 	beq	r2,zero,84c18 <___vfprintf_internal_r+0x1840>
   847e0:	d9002d17 	ldw	r4,180(sp)
   847e4:	d9402917 	ldw	r5,164(sp)
   847e8:	002d883a 	mov	r22,zero
   847ec:	20800104 	addi	r2,r4,4
   847f0:	24c0000b 	ldhu	r19,0(r4)
   847f4:	283fc90e 	bge	r5,zero,8471c <rx_descriptor_end+0xfff846bc>
   847f8:	d8802d15 	stw	r2,180(sp)
   847fc:	0039883a 	mov	fp,zero
   84800:	9d84b03a 	or	r2,r19,r22
   84804:	103c461e 	bne	r2,zero,83920 <rx_descriptor_end+0xfff838c0>
   84808:	00800044 	movi	r2,1
   8480c:	003e6c06 	br	841c0 <rx_descriptor_end+0xfff84160>
   84810:	d9002c17 	ldw	r4,176(sp)
   84814:	d9801e04 	addi	r6,sp,120
   84818:	b80b883a 	mov	r5,r23
   8481c:	00895900 	call	89590 <__sprint_r>
   84820:	103bef1e 	bne	r2,zero,837e0 <rx_descriptor_end+0xfff83780>
   84824:	d8c02017 	ldw	r3,128(sp)
   84828:	da000404 	addi	r8,sp,16
   8482c:	d9003217 	ldw	r4,200(sp)
   84830:	d8802617 	ldw	r2,152(sp)
   84834:	d9403317 	ldw	r5,204(sp)
   84838:	8123883a 	add	r17,r16,r4
   8483c:	11400216 	blt	r2,r5,84848 <___vfprintf_internal_r+0x1470>
   84840:	9100004c 	andi	r4,r18,1
   84844:	20000d26 	beq	r4,zero,8487c <___vfprintf_internal_r+0x14a4>
   84848:	d9003717 	ldw	r4,220(sp)
   8484c:	d9403417 	ldw	r5,208(sp)
   84850:	1907883a 	add	r3,r3,r4
   84854:	d9001f17 	ldw	r4,124(sp)
   84858:	41400015 	stw	r5,0(r8)
   8485c:	d9403717 	ldw	r5,220(sp)
   84860:	21000044 	addi	r4,r4,1
   84864:	d8c02015 	stw	r3,128(sp)
   84868:	41400115 	stw	r5,4(r8)
   8486c:	d9001f15 	stw	r4,124(sp)
   84870:	014001c4 	movi	r5,7
   84874:	2901e816 	blt	r5,r4,85018 <___vfprintf_internal_r+0x1c40>
   84878:	42000204 	addi	r8,r8,8
   8487c:	d9003317 	ldw	r4,204(sp)
   84880:	8121883a 	add	r16,r16,r4
   84884:	2085c83a 	sub	r2,r4,r2
   84888:	8461c83a 	sub	r16,r16,r17
   8488c:	1400010e 	bge	r2,r16,84894 <___vfprintf_internal_r+0x14bc>
   84890:	1021883a 	mov	r16,r2
   84894:	04000a0e 	bge	zero,r16,848c0 <___vfprintf_internal_r+0x14e8>
   84898:	d9001f17 	ldw	r4,124(sp)
   8489c:	1c07883a 	add	r3,r3,r16
   848a0:	44400015 	stw	r17,0(r8)
   848a4:	21000044 	addi	r4,r4,1
   848a8:	44000115 	stw	r16,4(r8)
   848ac:	d8c02015 	stw	r3,128(sp)
   848b0:	d9001f15 	stw	r4,124(sp)
   848b4:	014001c4 	movi	r5,7
   848b8:	2901fb16 	blt	r5,r4,850a8 <___vfprintf_internal_r+0x1cd0>
   848bc:	42000204 	addi	r8,r8,8
   848c0:	8001f716 	blt	r16,zero,850a0 <___vfprintf_internal_r+0x1cc8>
   848c4:	1421c83a 	sub	r16,r2,r16
   848c8:	043d380e 	bge	zero,r16,83dac <rx_descriptor_end+0xfff83d4c>
   848cc:	04400404 	movi	r17,16
   848d0:	d8801f17 	ldw	r2,124(sp)
   848d4:	8c3efb0e 	bge	r17,r16,844c4 <rx_descriptor_end+0xfff84464>
   848d8:	01400274 	movhi	r5,9
   848dc:	29484c84 	addi	r5,r5,8498
   848e0:	d9402b15 	stw	r5,172(sp)
   848e4:	058001c4 	movi	r22,7
   848e8:	dcc02c17 	ldw	r19,176(sp)
   848ec:	00000306 	br	848fc <___vfprintf_internal_r+0x1524>
   848f0:	42000204 	addi	r8,r8,8
   848f4:	843ffc04 	addi	r16,r16,-16
   848f8:	8c3ef50e 	bge	r17,r16,844d0 <rx_descriptor_end+0xfff84470>
   848fc:	18c00404 	addi	r3,r3,16
   84900:	10800044 	addi	r2,r2,1
   84904:	45000015 	stw	r20,0(r8)
   84908:	44400115 	stw	r17,4(r8)
   8490c:	d8c02015 	stw	r3,128(sp)
   84910:	d8801f15 	stw	r2,124(sp)
   84914:	b0bff60e 	bge	r22,r2,848f0 <rx_descriptor_end+0xfff84890>
   84918:	d9801e04 	addi	r6,sp,120
   8491c:	b80b883a 	mov	r5,r23
   84920:	9809883a 	mov	r4,r19
   84924:	00895900 	call	89590 <__sprint_r>
   84928:	103bad1e 	bne	r2,zero,837e0 <rx_descriptor_end+0xfff83780>
   8492c:	d8c02017 	ldw	r3,128(sp)
   84930:	d8801f17 	ldw	r2,124(sp)
   84934:	da000404 	addi	r8,sp,16
   84938:	003fee06 	br	848f4 <rx_descriptor_end+0xfff84894>
   8493c:	9088703a 	and	r4,r18,r2
   84940:	203eab1e 	bne	r4,zero,843f0 <rx_descriptor_end+0xfff84390>
   84944:	dc401f17 	ldw	r17,124(sp)
   84948:	40800115 	stw	r2,4(r8)
   8494c:	44000015 	stw	r16,0(r8)
   84950:	8c400044 	addi	r17,r17,1
   84954:	d8c02015 	stw	r3,128(sp)
   84958:	dc401f15 	stw	r17,124(sp)
   8495c:	008001c4 	movi	r2,7
   84960:	14400e16 	blt	r2,r17,8499c <___vfprintf_internal_r+0x15c4>
   84964:	45800204 	addi	r22,r8,8
   84968:	003eca06 	br	84494 <rx_descriptor_end+0xfff84434>
   8496c:	01000274 	movhi	r4,9
   84970:	21084c84 	addi	r4,r4,8498
   84974:	d9002b15 	stw	r4,172(sp)
   84978:	d8802b17 	ldw	r2,172(sp)
   8497c:	1c07883a 	add	r3,r3,r16
   84980:	8c400044 	addi	r17,r17,1
   84984:	b0800015 	stw	r2,0(r22)
   84988:	b4000115 	stw	r16,4(r22)
   8498c:	d8c02015 	stw	r3,128(sp)
   84990:	dc401f15 	stw	r17,124(sp)
   84994:	008001c4 	movi	r2,7
   84998:	147ebd0e 	bge	r2,r17,84490 <rx_descriptor_end+0xfff84430>
   8499c:	d9002c17 	ldw	r4,176(sp)
   849a0:	d9801e04 	addi	r6,sp,120
   849a4:	b80b883a 	mov	r5,r23
   849a8:	00895900 	call	89590 <__sprint_r>
   849ac:	103b8c1e 	bne	r2,zero,837e0 <rx_descriptor_end+0xfff83780>
   849b0:	d8c02017 	ldw	r3,128(sp)
   849b4:	dc401f17 	ldw	r17,124(sp)
   849b8:	dd800404 	addi	r22,sp,16
   849bc:	003eb506 	br	84494 <rx_descriptor_end+0xfff84434>
   849c0:	d9002c17 	ldw	r4,176(sp)
   849c4:	d9801e04 	addi	r6,sp,120
   849c8:	b80b883a 	mov	r5,r23
   849cc:	00895900 	call	89590 <__sprint_r>
   849d0:	103b831e 	bne	r2,zero,837e0 <rx_descriptor_end+0xfff83780>
   849d4:	d8c02017 	ldw	r3,128(sp)
   849d8:	dc401f17 	ldw	r17,124(sp)
   849dc:	da000404 	addi	r8,sp,16
   849e0:	003e8d06 	br	84418 <rx_descriptor_end+0xfff843b8>
   849e4:	d9002c17 	ldw	r4,176(sp)
   849e8:	d9801e04 	addi	r6,sp,120
   849ec:	b80b883a 	mov	r5,r23
   849f0:	00895900 	call	89590 <__sprint_r>
   849f4:	103b7a1e 	bne	r2,zero,837e0 <rx_descriptor_end+0xfff83780>
   849f8:	d8c02017 	ldw	r3,128(sp)
   849fc:	dc401f17 	ldw	r17,124(sp)
   84a00:	dd800404 	addi	r22,sp,16
   84a04:	003e8f06 	br	84444 <rx_descriptor_end+0xfff843e4>
   84a08:	0027883a 	mov	r19,zero
   84a0c:	003f4a06 	br	84738 <rx_descriptor_end+0xfff846d8>
   84a10:	d9002c17 	ldw	r4,176(sp)
   84a14:	d9801e04 	addi	r6,sp,120
   84a18:	b80b883a 	mov	r5,r23
   84a1c:	00895900 	call	89590 <__sprint_r>
   84a20:	103b6f1e 	bne	r2,zero,837e0 <rx_descriptor_end+0xfff83780>
   84a24:	d8c02017 	ldw	r3,128(sp)
   84a28:	da000404 	addi	r8,sp,16
   84a2c:	003c9d06 	br	83ca4 <rx_descriptor_end+0xfff83c44>
   84a30:	04e7c83a 	sub	r19,zero,r19
   84a34:	9804c03a 	cmpne	r2,r19,zero
   84a38:	05adc83a 	sub	r22,zero,r22
   84a3c:	b0adc83a 	sub	r22,r22,r2
   84a40:	d8802917 	ldw	r2,164(sp)
   84a44:	07000b44 	movi	fp,45
   84a48:	df002785 	stb	fp,158(sp)
   84a4c:	10017b16 	blt	r2,zero,8503c <___vfprintf_internal_r+0x1c64>
   84a50:	00bfdfc4 	movi	r2,-129
   84a54:	90a4703a 	and	r18,r18,r2
   84a58:	003bb106 	br	83920 <rx_descriptor_end+0xfff838c0>
   84a5c:	d9003617 	ldw	r4,216(sp)
   84a60:	d9403817 	ldw	r5,224(sp)
   84a64:	da003d15 	stw	r8,244(sp)
   84a68:	00893440 	call	89344 <__fpclassifyd>
   84a6c:	da003d17 	ldw	r8,244(sp)
   84a70:	1000f026 	beq	r2,zero,84e34 <___vfprintf_internal_r+0x1a5c>
   84a74:	d9002917 	ldw	r4,164(sp)
   84a78:	05bff7c4 	movi	r22,-33
   84a7c:	00bfffc4 	movi	r2,-1
   84a80:	8dac703a 	and	r22,r17,r22
   84a84:	20820026 	beq	r4,r2,85288 <___vfprintf_internal_r+0x1eb0>
   84a88:	008011c4 	movi	r2,71
   84a8c:	b081f726 	beq	r22,r2,8526c <___vfprintf_internal_r+0x1e94>
   84a90:	d9003817 	ldw	r4,224(sp)
   84a94:	90c04014 	ori	r3,r18,256
   84a98:	d8c02b15 	stw	r3,172(sp)
   84a9c:	20021516 	blt	r4,zero,852f4 <___vfprintf_internal_r+0x1f1c>
   84aa0:	dcc03817 	ldw	r19,224(sp)
   84aa4:	d8002a05 	stb	zero,168(sp)
   84aa8:	00801984 	movi	r2,102
   84aac:	8881f926 	beq	r17,r2,85294 <___vfprintf_internal_r+0x1ebc>
   84ab0:	00801184 	movi	r2,70
   84ab4:	88821c26 	beq	r17,r2,85328 <___vfprintf_internal_r+0x1f50>
   84ab8:	00801144 	movi	r2,69
   84abc:	b081ef26 	beq	r22,r2,8527c <___vfprintf_internal_r+0x1ea4>
   84ac0:	d8c02917 	ldw	r3,164(sp)
   84ac4:	d8802104 	addi	r2,sp,132
   84ac8:	d8800315 	stw	r2,12(sp)
   84acc:	d9403617 	ldw	r5,216(sp)
   84ad0:	d8802504 	addi	r2,sp,148
   84ad4:	d9002c17 	ldw	r4,176(sp)
   84ad8:	d8800215 	stw	r2,8(sp)
   84adc:	d8802604 	addi	r2,sp,152
   84ae0:	d8c00015 	stw	r3,0(sp)
   84ae4:	d8800115 	stw	r2,4(sp)
   84ae8:	01c00084 	movi	r7,2
   84aec:	980d883a 	mov	r6,r19
   84af0:	d8c03c15 	stw	r3,240(sp)
   84af4:	da003d15 	stw	r8,244(sp)
   84af8:	0085ab00 	call	85ab0 <_dtoa_r>
   84afc:	1021883a 	mov	r16,r2
   84b00:	008019c4 	movi	r2,103
   84b04:	d8c03c17 	ldw	r3,240(sp)
   84b08:	da003d17 	ldw	r8,244(sp)
   84b0c:	88817126 	beq	r17,r2,850d4 <___vfprintf_internal_r+0x1cfc>
   84b10:	008011c4 	movi	r2,71
   84b14:	88829226 	beq	r17,r2,85560 <___vfprintf_internal_r+0x2188>
   84b18:	80f9883a 	add	fp,r16,r3
   84b1c:	d9003617 	ldw	r4,216(sp)
   84b20:	000d883a 	mov	r6,zero
   84b24:	000f883a 	mov	r7,zero
   84b28:	980b883a 	mov	r5,r19
   84b2c:	da003d15 	stw	r8,244(sp)
   84b30:	008cf900 	call	8cf90 <__eqdf2>
   84b34:	da003d17 	ldw	r8,244(sp)
   84b38:	10018d26 	beq	r2,zero,85170 <___vfprintf_internal_r+0x1d98>
   84b3c:	d8802117 	ldw	r2,132(sp)
   84b40:	1700062e 	bgeu	r2,fp,84b5c <___vfprintf_internal_r+0x1784>
   84b44:	01000c04 	movi	r4,48
   84b48:	10c00044 	addi	r3,r2,1
   84b4c:	d8c02115 	stw	r3,132(sp)
   84b50:	11000005 	stb	r4,0(r2)
   84b54:	d8802117 	ldw	r2,132(sp)
   84b58:	173ffb36 	bltu	r2,fp,84b48 <rx_descriptor_end+0xfff84ae8>
   84b5c:	1405c83a 	sub	r2,r2,r16
   84b60:	d8803315 	stw	r2,204(sp)
   84b64:	008011c4 	movi	r2,71
   84b68:	b0817626 	beq	r22,r2,85144 <___vfprintf_internal_r+0x1d6c>
   84b6c:	00801944 	movi	r2,101
   84b70:	1442810e 	bge	r2,r17,85578 <___vfprintf_internal_r+0x21a0>
   84b74:	d8c02617 	ldw	r3,152(sp)
   84b78:	00801984 	movi	r2,102
   84b7c:	d8c03215 	stw	r3,200(sp)
   84b80:	8881fe26 	beq	r17,r2,8537c <___vfprintf_internal_r+0x1fa4>
   84b84:	d8c03217 	ldw	r3,200(sp)
   84b88:	d9003317 	ldw	r4,204(sp)
   84b8c:	1901dd16 	blt	r3,r4,85304 <___vfprintf_internal_r+0x1f2c>
   84b90:	9480004c 	andi	r18,r18,1
   84b94:	90022b1e 	bne	r18,zero,85444 <___vfprintf_internal_r+0x206c>
   84b98:	1805883a 	mov	r2,r3
   84b9c:	18028016 	blt	r3,zero,855a0 <___vfprintf_internal_r+0x21c8>
   84ba0:	d8c03217 	ldw	r3,200(sp)
   84ba4:	044019c4 	movi	r17,103
   84ba8:	d8c02e15 	stw	r3,184(sp)
   84bac:	df002a07 	ldb	fp,168(sp)
   84bb0:	e001531e 	bne	fp,zero,85100 <___vfprintf_internal_r+0x1d28>
   84bb4:	df002783 	ldbu	fp,158(sp)
   84bb8:	d8802a15 	stw	r2,168(sp)
   84bbc:	dc802b17 	ldw	r18,172(sp)
   84bc0:	d8002915 	stw	zero,164(sp)
   84bc4:	003bd106 	br	83b0c <rx_descriptor_end+0xfff83aac>
   84bc8:	d8802d17 	ldw	r2,180(sp)
   84bcc:	d8c02d17 	ldw	r3,180(sp)
   84bd0:	d9002d17 	ldw	r4,180(sp)
   84bd4:	10800017 	ldw	r2,0(r2)
   84bd8:	18c00117 	ldw	r3,4(r3)
   84bdc:	21000204 	addi	r4,r4,8
   84be0:	d8803615 	stw	r2,216(sp)
   84be4:	d8c03815 	stw	r3,224(sp)
   84be8:	d9002d15 	stw	r4,180(sp)
   84bec:	003b7506 	br	839c4 <rx_descriptor_end+0xfff83964>
   84bf0:	ac400007 	ldb	r17,0(r21)
   84bf4:	003a5906 	br	8355c <rx_descriptor_end+0xfff834fc>
   84bf8:	9080100c 	andi	r2,r18,64
   84bfc:	1000a826 	beq	r2,zero,84ea0 <___vfprintf_internal_r+0x1ac8>
   84c00:	d9002d17 	ldw	r4,180(sp)
   84c04:	002d883a 	mov	r22,zero
   84c08:	24c0000b 	ldhu	r19,0(r4)
   84c0c:	21000104 	addi	r4,r4,4
   84c10:	d9002d15 	stw	r4,180(sp)
   84c14:	003ccb06 	br	83f44 <rx_descriptor_end+0xfff83ee4>
   84c18:	d8c02d17 	ldw	r3,180(sp)
   84c1c:	d9002917 	ldw	r4,164(sp)
   84c20:	002d883a 	mov	r22,zero
   84c24:	18800104 	addi	r2,r3,4
   84c28:	1cc00017 	ldw	r19,0(r3)
   84c2c:	203ebb0e 	bge	r4,zero,8471c <rx_descriptor_end+0xfff846bc>
   84c30:	003ef106 	br	847f8 <rx_descriptor_end+0xfff84798>
   84c34:	9080040c 	andi	r2,r18,16
   84c38:	1000921e 	bne	r2,zero,84e84 <___vfprintf_internal_r+0x1aac>
   84c3c:	9480100c 	andi	r18,r18,64
   84c40:	90013926 	beq	r18,zero,85128 <___vfprintf_internal_r+0x1d50>
   84c44:	d9002d17 	ldw	r4,180(sp)
   84c48:	d9402f17 	ldw	r5,188(sp)
   84c4c:	20800017 	ldw	r2,0(r4)
   84c50:	21000104 	addi	r4,r4,4
   84c54:	d9002d15 	stw	r4,180(sp)
   84c58:	1140000d 	sth	r5,0(r2)
   84c5c:	003a1606 	br	834b8 <rx_descriptor_end+0xfff83458>
   84c60:	9080100c 	andi	r2,r18,64
   84c64:	10008026 	beq	r2,zero,84e68 <___vfprintf_internal_r+0x1a90>
   84c68:	d8c02d17 	ldw	r3,180(sp)
   84c6c:	1cc0000f 	ldh	r19,0(r3)
   84c70:	18c00104 	addi	r3,r3,4
   84c74:	d8c02d15 	stw	r3,180(sp)
   84c78:	982dd7fa 	srai	r22,r19,31
   84c7c:	b005883a 	mov	r2,r22
   84c80:	003b1f06 	br	83900 <rx_descriptor_end+0xfff838a0>
   84c84:	9080100c 	andi	r2,r18,64
   84c88:	d8002785 	stb	zero,158(sp)
   84c8c:	10008a1e 	bne	r2,zero,84eb8 <___vfprintf_internal_r+0x1ae0>
   84c90:	d9402d17 	ldw	r5,180(sp)
   84c94:	d8c02917 	ldw	r3,164(sp)
   84c98:	002d883a 	mov	r22,zero
   84c9c:	28800104 	addi	r2,r5,4
   84ca0:	2cc00017 	ldw	r19,0(r5)
   84ca4:	183e4b0e 	bge	r3,zero,845d4 <rx_descriptor_end+0xfff84574>
   84ca8:	9d86b03a 	or	r3,r19,r22
   84cac:	d8802d15 	stw	r2,180(sp)
   84cb0:	183e4c1e 	bne	r3,zero,845e4 <rx_descriptor_end+0xfff84584>
   84cb4:	0039883a 	mov	fp,zero
   84cb8:	0005883a 	mov	r2,zero
   84cbc:	003d4006 	br	841c0 <rx_descriptor_end+0xfff84160>
   84cc0:	01400274 	movhi	r5,9
   84cc4:	29484c84 	addi	r5,r5,8498
   84cc8:	d9402b15 	stw	r5,172(sp)
   84ccc:	d9402b17 	ldw	r5,172(sp)
   84cd0:	1c47883a 	add	r3,r3,r17
   84cd4:	10800044 	addi	r2,r2,1
   84cd8:	41400015 	stw	r5,0(r8)
   84cdc:	44400115 	stw	r17,4(r8)
   84ce0:	d8c02015 	stw	r3,128(sp)
   84ce4:	d8801f15 	stw	r2,124(sp)
   84ce8:	010001c4 	movi	r4,7
   84cec:	20bec816 	blt	r4,r2,84810 <rx_descriptor_end+0xfff847b0>
   84cf0:	42000204 	addi	r8,r8,8
   84cf4:	003ecd06 	br	8482c <rx_descriptor_end+0xfff847cc>
   84cf8:	d9002917 	ldw	r4,164(sp)
   84cfc:	d8002785 	stb	zero,158(sp)
   84d00:	203d2d16 	blt	r4,zero,841b8 <rx_descriptor_end+0xfff84158>
   84d04:	00bfdfc4 	movi	r2,-129
   84d08:	90a4703a 	and	r18,r18,r2
   84d0c:	003a9106 	br	83754 <rx_descriptor_end+0xfff836f4>
   84d10:	01000274 	movhi	r4,9
   84d14:	21084c84 	addi	r4,r4,8498
   84d18:	d9002b15 	stw	r4,172(sp)
   84d1c:	003c0c06 	br	83d50 <rx_descriptor_end+0xfff83cf0>
   84d20:	d9002c17 	ldw	r4,176(sp)
   84d24:	d9801e04 	addi	r6,sp,120
   84d28:	b80b883a 	mov	r5,r23
   84d2c:	00895900 	call	89590 <__sprint_r>
   84d30:	103aab1e 	bne	r2,zero,837e0 <rx_descriptor_end+0xfff83780>
   84d34:	d8c02017 	ldw	r3,128(sp)
   84d38:	da000404 	addi	r8,sp,16
   84d3c:	003d4106 	br	84244 <rx_descriptor_end+0xfff841e4>
   84d40:	d8801f17 	ldw	r2,124(sp)
   84d44:	01400274 	movhi	r5,9
   84d48:	01000044 	movi	r4,1
   84d4c:	18c00044 	addi	r3,r3,1
   84d50:	10800044 	addi	r2,r2,1
   84d54:	29484c04 	addi	r5,r5,8496
   84d58:	41000115 	stw	r4,4(r8)
   84d5c:	41400015 	stw	r5,0(r8)
   84d60:	d8c02015 	stw	r3,128(sp)
   84d64:	d8801f15 	stw	r2,124(sp)
   84d68:	010001c4 	movi	r4,7
   84d6c:	20805c16 	blt	r4,r2,84ee0 <___vfprintf_internal_r+0x1b08>
   84d70:	42000204 	addi	r8,r8,8
   84d74:	8800041e 	bne	r17,zero,84d88 <___vfprintf_internal_r+0x19b0>
   84d78:	d8803317 	ldw	r2,204(sp)
   84d7c:	1000021e 	bne	r2,zero,84d88 <___vfprintf_internal_r+0x19b0>
   84d80:	9080004c 	andi	r2,r18,1
   84d84:	103c0926 	beq	r2,zero,83dac <rx_descriptor_end+0xfff83d4c>
   84d88:	d9003717 	ldw	r4,220(sp)
   84d8c:	d8801f17 	ldw	r2,124(sp)
   84d90:	d9403417 	ldw	r5,208(sp)
   84d94:	20c7883a 	add	r3,r4,r3
   84d98:	10800044 	addi	r2,r2,1
   84d9c:	41000115 	stw	r4,4(r8)
   84da0:	41400015 	stw	r5,0(r8)
   84da4:	d8c02015 	stw	r3,128(sp)
   84da8:	d8801f15 	stw	r2,124(sp)
   84dac:	010001c4 	movi	r4,7
   84db0:	20812116 	blt	r4,r2,85238 <___vfprintf_internal_r+0x1e60>
   84db4:	42000204 	addi	r8,r8,8
   84db8:	0463c83a 	sub	r17,zero,r17
   84dbc:	0440730e 	bge	zero,r17,84f8c <___vfprintf_internal_r+0x1bb4>
   84dc0:	05800404 	movi	r22,16
   84dc4:	b440860e 	bge	r22,r17,84fe0 <___vfprintf_internal_r+0x1c08>
   84dc8:	01400274 	movhi	r5,9
   84dcc:	29484c84 	addi	r5,r5,8498
   84dd0:	d9402b15 	stw	r5,172(sp)
   84dd4:	070001c4 	movi	fp,7
   84dd8:	dcc02c17 	ldw	r19,176(sp)
   84ddc:	00000306 	br	84dec <___vfprintf_internal_r+0x1a14>
   84de0:	42000204 	addi	r8,r8,8
   84de4:	8c7ffc04 	addi	r17,r17,-16
   84de8:	b440800e 	bge	r22,r17,84fec <___vfprintf_internal_r+0x1c14>
   84dec:	18c00404 	addi	r3,r3,16
   84df0:	10800044 	addi	r2,r2,1
   84df4:	45000015 	stw	r20,0(r8)
   84df8:	45800115 	stw	r22,4(r8)
   84dfc:	d8c02015 	stw	r3,128(sp)
   84e00:	d8801f15 	stw	r2,124(sp)
   84e04:	e0bff60e 	bge	fp,r2,84de0 <rx_descriptor_end+0xfff84d80>
   84e08:	d9801e04 	addi	r6,sp,120
   84e0c:	b80b883a 	mov	r5,r23
   84e10:	9809883a 	mov	r4,r19
   84e14:	00895900 	call	89590 <__sprint_r>
   84e18:	103a711e 	bne	r2,zero,837e0 <rx_descriptor_end+0xfff83780>
   84e1c:	d8c02017 	ldw	r3,128(sp)
   84e20:	d8801f17 	ldw	r2,124(sp)
   84e24:	da000404 	addi	r8,sp,16
   84e28:	003fee06 	br	84de4 <rx_descriptor_end+0xfff84d84>
   84e2c:	00bfffc4 	movi	r2,-1
   84e30:	003a6f06 	br	837f0 <rx_descriptor_end+0xfff83790>
   84e34:	008011c4 	movi	r2,71
   84e38:	1440b816 	blt	r2,r17,8511c <___vfprintf_internal_r+0x1d44>
   84e3c:	04000274 	movhi	r16,9
   84e40:	84083e04 	addi	r16,r16,8440
   84e44:	00c000c4 	movi	r3,3
   84e48:	00bfdfc4 	movi	r2,-129
   84e4c:	d8c02a15 	stw	r3,168(sp)
   84e50:	90a4703a 	and	r18,r18,r2
   84e54:	df002783 	ldbu	fp,158(sp)
   84e58:	d8c02e15 	stw	r3,184(sp)
   84e5c:	d8002915 	stw	zero,164(sp)
   84e60:	d8003215 	stw	zero,200(sp)
   84e64:	003b2906 	br	83b0c <rx_descriptor_end+0xfff83aac>
   84e68:	d9002d17 	ldw	r4,180(sp)
   84e6c:	24c00017 	ldw	r19,0(r4)
   84e70:	21000104 	addi	r4,r4,4
   84e74:	d9002d15 	stw	r4,180(sp)
   84e78:	982dd7fa 	srai	r22,r19,31
   84e7c:	b005883a 	mov	r2,r22
   84e80:	003a9f06 	br	83900 <rx_descriptor_end+0xfff838a0>
   84e84:	d9402d17 	ldw	r5,180(sp)
   84e88:	d8c02f17 	ldw	r3,188(sp)
   84e8c:	28800017 	ldw	r2,0(r5)
   84e90:	29400104 	addi	r5,r5,4
   84e94:	d9402d15 	stw	r5,180(sp)
   84e98:	10c00015 	stw	r3,0(r2)
   84e9c:	00398606 	br	834b8 <rx_descriptor_end+0xfff83458>
   84ea0:	d9402d17 	ldw	r5,180(sp)
   84ea4:	002d883a 	mov	r22,zero
   84ea8:	2cc00017 	ldw	r19,0(r5)
   84eac:	29400104 	addi	r5,r5,4
   84eb0:	d9402d15 	stw	r5,180(sp)
   84eb4:	003c2306 	br	83f44 <rx_descriptor_end+0xfff83ee4>
   84eb8:	d8c02d17 	ldw	r3,180(sp)
   84ebc:	d9002917 	ldw	r4,164(sp)
   84ec0:	002d883a 	mov	r22,zero
   84ec4:	18800104 	addi	r2,r3,4
   84ec8:	1cc0000b 	ldhu	r19,0(r3)
   84ecc:	203dc10e 	bge	r4,zero,845d4 <rx_descriptor_end+0xfff84574>
   84ed0:	003f7506 	br	84ca8 <rx_descriptor_end+0xfff84c48>
   84ed4:	04000274 	movhi	r16,9
   84ed8:	84083c04 	addi	r16,r16,8432
   84edc:	003acc06 	br	83a10 <rx_descriptor_end+0xfff839b0>
   84ee0:	d9002c17 	ldw	r4,176(sp)
   84ee4:	d9801e04 	addi	r6,sp,120
   84ee8:	b80b883a 	mov	r5,r23
   84eec:	00895900 	call	89590 <__sprint_r>
   84ef0:	103a3b1e 	bne	r2,zero,837e0 <rx_descriptor_end+0xfff83780>
   84ef4:	dc402617 	ldw	r17,152(sp)
   84ef8:	d8c02017 	ldw	r3,128(sp)
   84efc:	da000404 	addi	r8,sp,16
   84f00:	003f9c06 	br	84d74 <rx_descriptor_end+0xfff84d14>
   84f04:	ac400043 	ldbu	r17,1(r21)
   84f08:	94800814 	ori	r18,r18,32
   84f0c:	ad400044 	addi	r21,r21,1
   84f10:	8c403fcc 	andi	r17,r17,255
   84f14:	8c40201c 	xori	r17,r17,128
   84f18:	8c7fe004 	addi	r17,r17,-128
   84f1c:	00398f06 	br	8355c <rx_descriptor_end+0xfff834fc>
   84f20:	d8c02d15 	stw	r3,180(sp)
   84f24:	0039883a 	mov	fp,zero
   84f28:	003e3506 	br	84800 <rx_descriptor_end+0xfff847a0>
   84f2c:	d9002c17 	ldw	r4,176(sp)
   84f30:	d9801e04 	addi	r6,sp,120
   84f34:	b80b883a 	mov	r5,r23
   84f38:	00895900 	call	89590 <__sprint_r>
   84f3c:	103a281e 	bne	r2,zero,837e0 <rx_descriptor_end+0xfff83780>
   84f40:	d8c02017 	ldw	r3,128(sp)
   84f44:	da000404 	addi	r8,sp,16
   84f48:	003cd006 	br	8428c <rx_descriptor_end+0xfff8422c>
   84f4c:	8009883a 	mov	r4,r16
   84f50:	da003d15 	stw	r8,244(sp)
   84f54:	00833400 	call	83340 <strlen>
   84f58:	d8802e15 	stw	r2,184(sp)
   84f5c:	da003d17 	ldw	r8,244(sp)
   84f60:	103c340e 	bge	r2,zero,84034 <rx_descriptor_end+0xfff83fd4>
   84f64:	0005883a 	mov	r2,zero
   84f68:	003c3206 	br	84034 <rx_descriptor_end+0xfff83fd4>
   84f6c:	d9002c17 	ldw	r4,176(sp)
   84f70:	d9801e04 	addi	r6,sp,120
   84f74:	b80b883a 	mov	r5,r23
   84f78:	00895900 	call	89590 <__sprint_r>
   84f7c:	103a181e 	bne	r2,zero,837e0 <rx_descriptor_end+0xfff83780>
   84f80:	d8c02017 	ldw	r3,128(sp)
   84f84:	d8801f17 	ldw	r2,124(sp)
   84f88:	da000404 	addi	r8,sp,16
   84f8c:	d9403317 	ldw	r5,204(sp)
   84f90:	10800044 	addi	r2,r2,1
   84f94:	44000015 	stw	r16,0(r8)
   84f98:	28c7883a 	add	r3,r5,r3
   84f9c:	003b7d06 	br	83d94 <rx_descriptor_end+0xfff83d34>
   84fa0:	01000274 	movhi	r4,9
   84fa4:	21085084 	addi	r4,r4,8514
   84fa8:	d9003515 	stw	r4,212(sp)
   84fac:	003b1406 	br	83c00 <rx_descriptor_end+0xfff83ba0>
   84fb0:	013fffc4 	movi	r4,-1
   84fb4:	003a3506 	br	8388c <rx_descriptor_end+0xfff8382c>
   84fb8:	0023883a 	mov	r17,zero
   84fbc:	003d9d06 	br	84634 <rx_descriptor_end+0xfff845d4>
   84fc0:	d9002c17 	ldw	r4,176(sp)
   84fc4:	d9801e04 	addi	r6,sp,120
   84fc8:	b80b883a 	mov	r5,r23
   84fcc:	00895900 	call	89590 <__sprint_r>
   84fd0:	103a031e 	bne	r2,zero,837e0 <rx_descriptor_end+0xfff83780>
   84fd4:	d8c02017 	ldw	r3,128(sp)
   84fd8:	da000404 	addi	r8,sp,16
   84fdc:	003d9406 	br	84630 <rx_descriptor_end+0xfff845d0>
   84fe0:	01000274 	movhi	r4,9
   84fe4:	21084c84 	addi	r4,r4,8498
   84fe8:	d9002b15 	stw	r4,172(sp)
   84fec:	d9002b17 	ldw	r4,172(sp)
   84ff0:	1c47883a 	add	r3,r3,r17
   84ff4:	10800044 	addi	r2,r2,1
   84ff8:	41000015 	stw	r4,0(r8)
   84ffc:	44400115 	stw	r17,4(r8)
   85000:	d8c02015 	stw	r3,128(sp)
   85004:	d8801f15 	stw	r2,124(sp)
   85008:	010001c4 	movi	r4,7
   8500c:	20bfd716 	blt	r4,r2,84f6c <rx_descriptor_end+0xfff84f0c>
   85010:	42000204 	addi	r8,r8,8
   85014:	003fdd06 	br	84f8c <rx_descriptor_end+0xfff84f2c>
   85018:	d9002c17 	ldw	r4,176(sp)
   8501c:	d9801e04 	addi	r6,sp,120
   85020:	b80b883a 	mov	r5,r23
   85024:	00895900 	call	89590 <__sprint_r>
   85028:	1039ed1e 	bne	r2,zero,837e0 <rx_descriptor_end+0xfff83780>
   8502c:	d8802617 	ldw	r2,152(sp)
   85030:	d8c02017 	ldw	r3,128(sp)
   85034:	da000404 	addi	r8,sp,16
   85038:	003e1006 	br	8487c <rx_descriptor_end+0xfff8481c>
   8503c:	00800044 	movi	r2,1
   85040:	10803fcc 	andi	r2,r2,255
   85044:	00c00044 	movi	r3,1
   85048:	10fa3526 	beq	r2,r3,83920 <rx_descriptor_end+0xfff838c0>
   8504c:	00c00084 	movi	r3,2
   85050:	10fbcb26 	beq	r2,r3,83f80 <rx_descriptor_end+0xfff83f20>
   85054:	003a8f06 	br	83a94 <rx_descriptor_end+0xfff83a34>
   85058:	01000274 	movhi	r4,9
   8505c:	21085084 	addi	r4,r4,8514
   85060:	d9003515 	stw	r4,212(sp)
   85064:	003b7606 	br	83e40 <rx_descriptor_end+0xfff83de0>
   85068:	d8802917 	ldw	r2,164(sp)
   8506c:	00c00184 	movi	r3,6
   85070:	1880012e 	bgeu	r3,r2,85078 <___vfprintf_internal_r+0x1ca0>
   85074:	1805883a 	mov	r2,r3
   85078:	d8802e15 	stw	r2,184(sp)
   8507c:	1000ef16 	blt	r2,zero,8543c <___vfprintf_internal_r+0x2064>
   85080:	04000274 	movhi	r16,9
   85084:	d8802a15 	stw	r2,168(sp)
   85088:	dcc02d15 	stw	r19,180(sp)
   8508c:	d8002915 	stw	zero,164(sp)
   85090:	d8003215 	stw	zero,200(sp)
   85094:	84084a04 	addi	r16,r16,8488
   85098:	0039883a 	mov	fp,zero
   8509c:	003aa206 	br	83b28 <rx_descriptor_end+0xfff83ac8>
   850a0:	0021883a 	mov	r16,zero
   850a4:	003e0706 	br	848c4 <rx_descriptor_end+0xfff84864>
   850a8:	d9002c17 	ldw	r4,176(sp)
   850ac:	d9801e04 	addi	r6,sp,120
   850b0:	b80b883a 	mov	r5,r23
   850b4:	00895900 	call	89590 <__sprint_r>
   850b8:	1039c91e 	bne	r2,zero,837e0 <rx_descriptor_end+0xfff83780>
   850bc:	d8802617 	ldw	r2,152(sp)
   850c0:	d9403317 	ldw	r5,204(sp)
   850c4:	d8c02017 	ldw	r3,128(sp)
   850c8:	da000404 	addi	r8,sp,16
   850cc:	2885c83a 	sub	r2,r5,r2
   850d0:	003dfb06 	br	848c0 <rx_descriptor_end+0xfff84860>
   850d4:	9080004c 	andi	r2,r18,1
   850d8:	103e8f1e 	bne	r2,zero,84b18 <rx_descriptor_end+0xfff84ab8>
   850dc:	d8802117 	ldw	r2,132(sp)
   850e0:	003e9e06 	br	84b5c <rx_descriptor_end+0xfff84afc>
   850e4:	1025883a 	mov	r18,r2
   850e8:	0039883a 	mov	fp,zero
   850ec:	00800084 	movi	r2,2
   850f0:	003fd306 	br	85040 <rx_descriptor_end+0xfff84fe0>
   850f4:	07000b44 	movi	fp,45
   850f8:	df002785 	stb	fp,158(sp)
   850fc:	003a4006 	br	83a00 <rx_descriptor_end+0xfff839a0>
   85100:	00c00b44 	movi	r3,45
   85104:	d8c02785 	stb	r3,158(sp)
   85108:	d8802a15 	stw	r2,168(sp)
   8510c:	dc802b17 	ldw	r18,172(sp)
   85110:	d8002915 	stw	zero,164(sp)
   85114:	07000b44 	movi	fp,45
   85118:	003a8006 	br	83b1c <rx_descriptor_end+0xfff83abc>
   8511c:	04000274 	movhi	r16,9
   85120:	84083f04 	addi	r16,r16,8444
   85124:	003f4706 	br	84e44 <rx_descriptor_end+0xfff84de4>
   85128:	d8c02d17 	ldw	r3,180(sp)
   8512c:	d9002f17 	ldw	r4,188(sp)
   85130:	18800017 	ldw	r2,0(r3)
   85134:	18c00104 	addi	r3,r3,4
   85138:	d8c02d15 	stw	r3,180(sp)
   8513c:	11000015 	stw	r4,0(r2)
   85140:	0038dd06 	br	834b8 <rx_descriptor_end+0xfff83458>
   85144:	dd802617 	ldw	r22,152(sp)
   85148:	00bfff44 	movi	r2,-3
   8514c:	b0801c16 	blt	r22,r2,851c0 <___vfprintf_internal_r+0x1de8>
   85150:	d9402917 	ldw	r5,164(sp)
   85154:	2d801a16 	blt	r5,r22,851c0 <___vfprintf_internal_r+0x1de8>
   85158:	dd803215 	stw	r22,200(sp)
   8515c:	003e8906 	br	84b84 <rx_descriptor_end+0xfff84b24>
   85160:	01000274 	movhi	r4,9
   85164:	21084c84 	addi	r4,r4,8498
   85168:	d9002b15 	stw	r4,172(sp)
   8516c:	003c9106 	br	843b4 <rx_descriptor_end+0xfff84354>
   85170:	e005883a 	mov	r2,fp
   85174:	003e7906 	br	84b5c <rx_descriptor_end+0xfff84afc>
   85178:	d9402917 	ldw	r5,164(sp)
   8517c:	df002783 	ldbu	fp,158(sp)
   85180:	dcc02d15 	stw	r19,180(sp)
   85184:	d9402a15 	stw	r5,168(sp)
   85188:	d9402e15 	stw	r5,184(sp)
